
rv64ui-p-bge:     file format elf64-littleriscv


Disassembly of section .text.init:

0000000000000000 <_start>:
   0:	008007b7          	lui	a5,0x800
   4:	ff878793          	addi	a5,a5,-8 # 7ffff8 <_end+0x7fdff8>
   8:	04100713          	li	a4,65
   c:	00e78023          	sb	a4,0(a5)
  10:	00e78023          	sb	a4,0(a5)
  14:	00e78023          	sb	a4,0(a5)
  18:	04c0006f          	j	64 <reset_vector>

000000000000001c <trap_vector>:
  1c:	34202f73          	csrr	t5,mcause
  20:	00800f93          	li	t6,8
  24:	03ff0a63          	beq	t5,t6,58 <write_tohost>
  28:	00900f93          	li	t6,9
  2c:	03ff0663          	beq	t5,t6,58 <write_tohost>
  30:	00b00f93          	li	t6,11
  34:	03ff0263          	beq	t5,t6,58 <write_tohost>
  38:	00000f17          	auipc	t5,0x0
  3c:	fc8f0f13          	addi	t5,t5,-56 # 0 <_start>
  40:	000f0463          	beqz	t5,48 <trap_vector+0x2c>
  44:	000f0067          	jr	t5
  48:	34202f73          	csrr	t5,mcause
  4c:	000f5463          	bgez	t5,54 <handle_exception>
  50:	0040006f          	j	54 <handle_exception>

0000000000000054 <handle_exception>:
  54:	5391e193          	ori	gp,gp,1337

0000000000000058 <write_tohost>:
  58:	00001f17          	auipc	t5,0x1
  5c:	fa3f2423          	sw	gp,-88(t5) # 1000 <tohost>
  60:	ff9ff06f          	j	58 <write_tohost>

0000000000000064 <reset_vector>:
  64:	f1402573          	csrr	a0,mhartid
  68:	00051063          	bnez	a0,68 <reset_vector+0x4>
  6c:	00000297          	auipc	t0,0x0
  70:	01028293          	addi	t0,t0,16 # 7c <reset_vector+0x18>
  74:	30529073          	csrw	mtvec,t0
  78:	18005073          	csrwi	satp,0
  7c:	00000297          	auipc	t0,0x0
  80:	02428293          	addi	t0,t0,36 # a0 <reset_vector+0x3c>
  84:	30529073          	csrw	mtvec,t0
  88:	0010029b          	addiw	t0,zero,1
  8c:	03529293          	slli	t0,t0,0x35
  90:	fff28293          	addi	t0,t0,-1
  94:	3b029073          	csrw	pmpaddr0,t0
  98:	01f00293          	li	t0,31
  9c:	3a029073          	csrw	pmpcfg0,t0
  a0:	00000297          	auipc	t0,0x0
  a4:	01828293          	addi	t0,t0,24 # b8 <reset_vector+0x54>
  a8:	30529073          	csrw	mtvec,t0
  ac:	30205073          	csrwi	medeleg,0
  b0:	30305073          	csrwi	mideleg,0
  b4:	30405073          	csrwi	mie,0
  b8:	00000193          	li	gp,0
  bc:	00000297          	auipc	t0,0x0
  c0:	f6028293          	addi	t0,t0,-160 # 1c <trap_vector>
  c4:	30529073          	csrw	mtvec,t0
  c8:	00100513          	li	a0,1
  cc:	01f51513          	slli	a0,a0,0x1f
  d0:	00055863          	bgez	a0,e0 <reset_vector+0x7c>
  d4:	0ff0000f          	fence
  d8:	00100193          	li	gp,1
  dc:	00000073          	ecall
  e0:	00000297          	auipc	t0,0x0
  e4:	f2028293          	addi	t0,t0,-224 # 0 <_start>
  e8:	00028e63          	beqz	t0,104 <reset_vector+0xa0>
  ec:	10529073          	csrw	stvec,t0
  f0:	0000b2b7          	lui	t0,0xb
  f4:	1092829b          	addiw	t0,t0,265
  f8:	30229073          	csrw	medeleg,t0
  fc:	30202373          	csrr	t1,medeleg
 100:	f4629ae3          	bne	t0,t1,54 <handle_exception>
 104:	30005073          	csrwi	mstatus,0
 108:	00000297          	auipc	t0,0x0
 10c:	01428293          	addi	t0,t0,20 # 11c <test_2>
 110:	34129073          	csrw	mepc,t0
 114:	f1402573          	csrr	a0,mhartid
 118:	30200073          	mret

000000000000011c <test_2>:
 11c:	00200193          	li	gp,2
 120:	00000093          	li	ra,0
 124:	00000113          	li	sp,0
 128:	0020d663          	bge	ra,sp,134 <test_2+0x18>
 12c:	30301863          	bne	zero,gp,43c <fail>
 130:	00301663          	bne	zero,gp,13c <test_3>
 134:	fe20dee3          	bge	ra,sp,130 <test_2+0x14>
 138:	30301263          	bne	zero,gp,43c <fail>

000000000000013c <test_3>:
 13c:	00300193          	li	gp,3
 140:	00100093          	li	ra,1
 144:	00100113          	li	sp,1
 148:	0020d663          	bge	ra,sp,154 <test_3+0x18>
 14c:	2e301863          	bne	zero,gp,43c <fail>
 150:	00301663          	bne	zero,gp,15c <test_4>
 154:	fe20dee3          	bge	ra,sp,150 <test_3+0x14>
 158:	2e301263          	bne	zero,gp,43c <fail>

000000000000015c <test_4>:
 15c:	00400193          	li	gp,4
 160:	fff00093          	li	ra,-1
 164:	fff00113          	li	sp,-1
 168:	0020d663          	bge	ra,sp,174 <test_4+0x18>
 16c:	2c301863          	bne	zero,gp,43c <fail>
 170:	00301663          	bne	zero,gp,17c <test_5>
 174:	fe20dee3          	bge	ra,sp,170 <test_4+0x14>
 178:	2c301263          	bne	zero,gp,43c <fail>

000000000000017c <test_5>:
 17c:	00500193          	li	gp,5
 180:	00100093          	li	ra,1
 184:	00000113          	li	sp,0
 188:	0020d663          	bge	ra,sp,194 <test_5+0x18>
 18c:	2a301863          	bne	zero,gp,43c <fail>
 190:	00301663          	bne	zero,gp,19c <test_6>
 194:	fe20dee3          	bge	ra,sp,190 <test_5+0x14>
 198:	2a301263          	bne	zero,gp,43c <fail>

000000000000019c <test_6>:
 19c:	00600193          	li	gp,6
 1a0:	00100093          	li	ra,1
 1a4:	fff00113          	li	sp,-1
 1a8:	0020d663          	bge	ra,sp,1b4 <test_6+0x18>
 1ac:	28301863          	bne	zero,gp,43c <fail>
 1b0:	00301663          	bne	zero,gp,1bc <test_7>
 1b4:	fe20dee3          	bge	ra,sp,1b0 <test_6+0x14>
 1b8:	28301263          	bne	zero,gp,43c <fail>

00000000000001bc <test_7>:
 1bc:	00700193          	li	gp,7
 1c0:	fff00093          	li	ra,-1
 1c4:	ffe00113          	li	sp,-2
 1c8:	0020d663          	bge	ra,sp,1d4 <test_7+0x18>
 1cc:	26301863          	bne	zero,gp,43c <fail>
 1d0:	00301663          	bne	zero,gp,1dc <test_8>
 1d4:	fe20dee3          	bge	ra,sp,1d0 <test_7+0x14>
 1d8:	26301263          	bne	zero,gp,43c <fail>

00000000000001dc <test_8>:
 1dc:	00800193          	li	gp,8
 1e0:	00000093          	li	ra,0
 1e4:	00100113          	li	sp,1
 1e8:	0020d463          	bge	ra,sp,1f0 <test_8+0x14>
 1ec:	00301463          	bne	zero,gp,1f4 <test_8+0x18>
 1f0:	24301663          	bne	zero,gp,43c <fail>
 1f4:	fe20dee3          	bge	ra,sp,1f0 <test_8+0x14>

00000000000001f8 <test_9>:
 1f8:	00900193          	li	gp,9
 1fc:	fff00093          	li	ra,-1
 200:	00100113          	li	sp,1
 204:	0020d463          	bge	ra,sp,20c <test_9+0x14>
 208:	00301463          	bne	zero,gp,210 <test_9+0x18>
 20c:	22301863          	bne	zero,gp,43c <fail>
 210:	fe20dee3          	bge	ra,sp,20c <test_9+0x14>

0000000000000214 <test_10>:
 214:	00a00193          	li	gp,10
 218:	ffe00093          	li	ra,-2
 21c:	fff00113          	li	sp,-1
 220:	0020d463          	bge	ra,sp,228 <test_10+0x14>
 224:	00301463          	bne	zero,gp,22c <test_10+0x18>
 228:	20301a63          	bne	zero,gp,43c <fail>
 22c:	fe20dee3          	bge	ra,sp,228 <test_10+0x14>

0000000000000230 <test_11>:
 230:	00b00193          	li	gp,11
 234:	ffe00093          	li	ra,-2
 238:	00100113          	li	sp,1
 23c:	0020d463          	bge	ra,sp,244 <test_11+0x14>
 240:	00301463          	bne	zero,gp,248 <test_11+0x18>
 244:	1e301c63          	bne	zero,gp,43c <fail>
 248:	fe20dee3          	bge	ra,sp,244 <test_11+0x14>

000000000000024c <test_12>:
 24c:	00c00193          	li	gp,12
 250:	00000213          	li	tp,0
 254:	fff00093          	li	ra,-1
 258:	00000113          	li	sp,0
 25c:	1e20d063          	bge	ra,sp,43c <fail>
 260:	00120213          	addi	tp,tp,1 # 1 <_start+0x1>
 264:	00200293          	li	t0,2
 268:	fe5216e3          	bne	tp,t0,254 <test_12+0x8>

000000000000026c <test_13>:
 26c:	00d00193          	li	gp,13
 270:	00000213          	li	tp,0
 274:	fff00093          	li	ra,-1
 278:	00000113          	li	sp,0
 27c:	00000013          	nop
 280:	1a20de63          	bge	ra,sp,43c <fail>
 284:	00120213          	addi	tp,tp,1 # 1 <_start+0x1>
 288:	00200293          	li	t0,2
 28c:	fe5214e3          	bne	tp,t0,274 <test_13+0x8>

0000000000000290 <test_14>:
 290:	00e00193          	li	gp,14
 294:	00000213          	li	tp,0
 298:	fff00093          	li	ra,-1
 29c:	00000113          	li	sp,0
 2a0:	00000013          	nop
 2a4:	00000013          	nop
 2a8:	1820da63          	bge	ra,sp,43c <fail>
 2ac:	00120213          	addi	tp,tp,1 # 1 <_start+0x1>
 2b0:	00200293          	li	t0,2
 2b4:	fe5212e3          	bne	tp,t0,298 <test_14+0x8>

00000000000002b8 <test_15>:
 2b8:	00f00193          	li	gp,15
 2bc:	00000213          	li	tp,0
 2c0:	fff00093          	li	ra,-1
 2c4:	00000013          	nop
 2c8:	00000113          	li	sp,0
 2cc:	1620d863          	bge	ra,sp,43c <fail>
 2d0:	00120213          	addi	tp,tp,1 # 1 <_start+0x1>
 2d4:	00200293          	li	t0,2
 2d8:	fe5214e3          	bne	tp,t0,2c0 <test_15+0x8>

00000000000002dc <test_16>:
 2dc:	01000193          	li	gp,16
 2e0:	00000213          	li	tp,0
 2e4:	fff00093          	li	ra,-1
 2e8:	00000013          	nop
 2ec:	00000113          	li	sp,0
 2f0:	00000013          	nop
 2f4:	1420d463          	bge	ra,sp,43c <fail>
 2f8:	00120213          	addi	tp,tp,1 # 1 <_start+0x1>
 2fc:	00200293          	li	t0,2
 300:	fe5212e3          	bne	tp,t0,2e4 <test_16+0x8>

0000000000000304 <test_17>:
 304:	01100193          	li	gp,17
 308:	00000213          	li	tp,0
 30c:	fff00093          	li	ra,-1
 310:	00000013          	nop
 314:	00000013          	nop
 318:	00000113          	li	sp,0
 31c:	1220d063          	bge	ra,sp,43c <fail>
 320:	00120213          	addi	tp,tp,1 # 1 <_start+0x1>
 324:	00200293          	li	t0,2
 328:	fe5212e3          	bne	tp,t0,30c <test_17+0x8>

000000000000032c <test_18>:
 32c:	01200193          	li	gp,18
 330:	00000213          	li	tp,0
 334:	fff00093          	li	ra,-1
 338:	00000113          	li	sp,0
 33c:	1020d063          	bge	ra,sp,43c <fail>
 340:	00120213          	addi	tp,tp,1 # 1 <_start+0x1>
 344:	00200293          	li	t0,2
 348:	fe5216e3          	bne	tp,t0,334 <test_18+0x8>

000000000000034c <test_19>:
 34c:	01300193          	li	gp,19
 350:	00000213          	li	tp,0
 354:	fff00093          	li	ra,-1
 358:	00000113          	li	sp,0
 35c:	00000013          	nop
 360:	0c20de63          	bge	ra,sp,43c <fail>
 364:	00120213          	addi	tp,tp,1 # 1 <_start+0x1>
 368:	00200293          	li	t0,2
 36c:	fe5214e3          	bne	tp,t0,354 <test_19+0x8>

0000000000000370 <test_20>:
 370:	01400193          	li	gp,20
 374:	00000213          	li	tp,0
 378:	fff00093          	li	ra,-1
 37c:	00000113          	li	sp,0
 380:	00000013          	nop
 384:	00000013          	nop
 388:	0a20da63          	bge	ra,sp,43c <fail>
 38c:	00120213          	addi	tp,tp,1 # 1 <_start+0x1>
 390:	00200293          	li	t0,2
 394:	fe5212e3          	bne	tp,t0,378 <test_20+0x8>

0000000000000398 <test_21>:
 398:	01500193          	li	gp,21
 39c:	00000213          	li	tp,0
 3a0:	fff00093          	li	ra,-1
 3a4:	00000013          	nop
 3a8:	00000113          	li	sp,0
 3ac:	0820d863          	bge	ra,sp,43c <fail>
 3b0:	00120213          	addi	tp,tp,1 # 1 <_start+0x1>
 3b4:	00200293          	li	t0,2
 3b8:	fe5214e3          	bne	tp,t0,3a0 <test_21+0x8>

00000000000003bc <test_22>:
 3bc:	01600193          	li	gp,22
 3c0:	00000213          	li	tp,0
 3c4:	fff00093          	li	ra,-1
 3c8:	00000013          	nop
 3cc:	00000113          	li	sp,0
 3d0:	00000013          	nop
 3d4:	0620d463          	bge	ra,sp,43c <fail>
 3d8:	00120213          	addi	tp,tp,1 # 1 <_start+0x1>
 3dc:	00200293          	li	t0,2
 3e0:	fe5212e3          	bne	tp,t0,3c4 <test_22+0x8>

00000000000003e4 <test_23>:
 3e4:	01700193          	li	gp,23
 3e8:	00000213          	li	tp,0
 3ec:	fff00093          	li	ra,-1
 3f0:	00000013          	nop
 3f4:	00000013          	nop
 3f8:	00000113          	li	sp,0
 3fc:	0420d063          	bge	ra,sp,43c <fail>
 400:	00120213          	addi	tp,tp,1 # 1 <_start+0x1>
 404:	00200293          	li	t0,2
 408:	fe5212e3          	bne	tp,t0,3ec <test_23+0x8>

000000000000040c <test_24>:
 40c:	00100093          	li	ra,1
 410:	0000da63          	bgez	ra,424 <test_24+0x18>
 414:	00108093          	addi	ra,ra,1
 418:	00108093          	addi	ra,ra,1
 41c:	00108093          	addi	ra,ra,1
 420:	00108093          	addi	ra,ra,1
 424:	00108093          	addi	ra,ra,1
 428:	00108093          	addi	ra,ra,1
 42c:	00300e93          	li	t4,3
 430:	01800193          	li	gp,24
 434:	01d09463          	bne	ra,t4,43c <fail>
 438:	00301c63          	bne	zero,gp,450 <pass>

000000000000043c <fail>:
 43c:	0ff0000f          	fence
 440:	00018063          	beqz	gp,440 <fail+0x4>
 444:	00119193          	slli	gp,gp,0x1
 448:	0011e193          	ori	gp,gp,1
 44c:	00000073          	ecall

0000000000000450 <pass>:
 450:	0ff0000f          	fence
 454:	00100193          	li	gp,1
 458:	00000073          	ecall
 45c:	c0001073          	unimp
	...

Disassembly of section .tohost:

0000000000001000 <tohost>:
	...

0000000000001040 <fromhost>:
	...
