
rv64ui-p-srai:     file format elf64-littleriscv


Disassembly of section .text.init:

0000000000000000 <_start>:
   0:	008007b7          	lui	a5,0x800
   4:	ff878793          	addi	a5,a5,-8 # 7ffff8 <_end+0x7fdff8>
   8:	04100713          	li	a4,65
   c:	00e78023          	sb	a4,0(a5)
  10:	00e78023          	sb	a4,0(a5)
  14:	00e78023          	sb	a4,0(a5)
  18:	04c0006f          	j	64 <reset_vector>

000000000000001c <trap_vector>:
  1c:	34202f73          	csrr	t5,mcause
  20:	00800f93          	li	t6,8
  24:	03ff0a63          	beq	t5,t6,58 <write_tohost>
  28:	00900f93          	li	t6,9
  2c:	03ff0663          	beq	t5,t6,58 <write_tohost>
  30:	00b00f93          	li	t6,11
  34:	03ff0263          	beq	t5,t6,58 <write_tohost>
  38:	00000f17          	auipc	t5,0x0
  3c:	fc8f0f13          	addi	t5,t5,-56 # 0 <_start>
  40:	000f0463          	beqz	t5,48 <trap_vector+0x2c>
  44:	000f0067          	jr	t5
  48:	34202f73          	csrr	t5,mcause
  4c:	000f5463          	bgez	t5,54 <handle_exception>
  50:	0040006f          	j	54 <handle_exception>

0000000000000054 <handle_exception>:
  54:	5391e193          	ori	gp,gp,1337

0000000000000058 <write_tohost>:
  58:	00001f17          	auipc	t5,0x1
  5c:	fa3f2423          	sw	gp,-88(t5) # 1000 <tohost>
  60:	ff9ff06f          	j	58 <write_tohost>

0000000000000064 <reset_vector>:
  64:	f1402573          	csrr	a0,mhartid
  68:	00051063          	bnez	a0,68 <reset_vector+0x4>
  6c:	00000297          	auipc	t0,0x0
  70:	01028293          	addi	t0,t0,16 # 7c <reset_vector+0x18>
  74:	30529073          	csrw	mtvec,t0
  78:	18005073          	csrwi	satp,0
  7c:	00000297          	auipc	t0,0x0
  80:	02428293          	addi	t0,t0,36 # a0 <reset_vector+0x3c>
  84:	30529073          	csrw	mtvec,t0
  88:	0010029b          	addiw	t0,zero,1
  8c:	03529293          	slli	t0,t0,0x35
  90:	fff28293          	addi	t0,t0,-1
  94:	3b029073          	csrw	pmpaddr0,t0
  98:	01f00293          	li	t0,31
  9c:	3a029073          	csrw	pmpcfg0,t0
  a0:	00000297          	auipc	t0,0x0
  a4:	01828293          	addi	t0,t0,24 # b8 <reset_vector+0x54>
  a8:	30529073          	csrw	mtvec,t0
  ac:	30205073          	csrwi	medeleg,0
  b0:	30305073          	csrwi	mideleg,0
  b4:	30405073          	csrwi	mie,0
  b8:	00000193          	li	gp,0
  bc:	00000297          	auipc	t0,0x0
  c0:	f6028293          	addi	t0,t0,-160 # 1c <trap_vector>
  c4:	30529073          	csrw	mtvec,t0
  c8:	00100513          	li	a0,1
  cc:	01f51513          	slli	a0,a0,0x1f
  d0:	00055863          	bgez	a0,e0 <reset_vector+0x7c>
  d4:	0ff0000f          	fence
  d8:	00100193          	li	gp,1
  dc:	00000073          	ecall
  e0:	00000297          	auipc	t0,0x0
  e4:	f2028293          	addi	t0,t0,-224 # 0 <_start>
  e8:	00028e63          	beqz	t0,104 <reset_vector+0xa0>
  ec:	10529073          	csrw	stvec,t0
  f0:	0000b2b7          	lui	t0,0xb
  f4:	1092829b          	addiw	t0,t0,265
  f8:	30229073          	csrw	medeleg,t0
  fc:	30202373          	csrr	t1,medeleg
 100:	f4629ae3          	bne	t0,t1,54 <handle_exception>
 104:	30005073          	csrwi	mstatus,0
 108:	00000297          	auipc	t0,0x0
 10c:	01428293          	addi	t0,t0,20 # 11c <test_2>
 110:	34129073          	csrw	mepc,t0
 114:	f1402573          	csrr	a0,mhartid
 118:	30200073          	mret

000000000000011c <test_2>:
 11c:	fff0009b          	addiw	ra,zero,-1
 120:	02709093          	slli	ra,ra,0x27
 124:	4000df13          	srai	t5,ra,0x0
 128:	fff00e9b          	addiw	t4,zero,-1
 12c:	027e9e93          	slli	t4,t4,0x27
 130:	00200193          	li	gp,2
 134:	2bdf1463          	bne	t5,t4,3dc <fail>

0000000000000138 <test_3>:
 138:	800000b7          	lui	ra,0x80000
 13c:	4010df13          	srai	t5,ra,0x1
 140:	c0000eb7          	lui	t4,0xc0000
 144:	00300193          	li	gp,3
 148:	29df1a63          	bne	t5,t4,3dc <fail>

000000000000014c <test_4>:
 14c:	800000b7          	lui	ra,0x80000
 150:	4070df13          	srai	t5,ra,0x7
 154:	ff000eb7          	lui	t4,0xff000
 158:	00400193          	li	gp,4
 15c:	29df1063          	bne	t5,t4,3dc <fail>

0000000000000160 <test_5>:
 160:	800000b7          	lui	ra,0x80000
 164:	40e0df13          	srai	t5,ra,0xe
 168:	fffe0eb7          	lui	t4,0xfffe0
 16c:	00500193          	li	gp,5
 170:	27df1663          	bne	t5,t4,3dc <fail>

0000000000000174 <test_6>:
 174:	800000b7          	lui	ra,0x80000
 178:	0010809b          	addiw	ra,ra,1
 17c:	41f0df13          	srai	t5,ra,0x1f
 180:	fff00e93          	li	t4,-1
 184:	00600193          	li	gp,6
 188:	25df1a63          	bne	t5,t4,3dc <fail>

000000000000018c <test_7>:
 18c:	800000b7          	lui	ra,0x80000
 190:	fff0809b          	addiw	ra,ra,-1
 194:	4000df13          	srai	t5,ra,0x0
 198:	80000eb7          	lui	t4,0x80000
 19c:	fffe8e9b          	addiw	t4,t4,-1
 1a0:	00700193          	li	gp,7
 1a4:	23df1c63          	bne	t5,t4,3dc <fail>

00000000000001a8 <test_8>:
 1a8:	800000b7          	lui	ra,0x80000
 1ac:	fff0809b          	addiw	ra,ra,-1
 1b0:	4010df13          	srai	t5,ra,0x1
 1b4:	40000eb7          	lui	t4,0x40000
 1b8:	fffe8e9b          	addiw	t4,t4,-1
 1bc:	00800193          	li	gp,8
 1c0:	21df1e63          	bne	t5,t4,3dc <fail>

00000000000001c4 <test_9>:
 1c4:	800000b7          	lui	ra,0x80000
 1c8:	fff0809b          	addiw	ra,ra,-1
 1cc:	4070df13          	srai	t5,ra,0x7
 1d0:	01000eb7          	lui	t4,0x1000
 1d4:	fffe8e9b          	addiw	t4,t4,-1
 1d8:	00900193          	li	gp,9
 1dc:	21df1063          	bne	t5,t4,3dc <fail>

00000000000001e0 <test_10>:
 1e0:	800000b7          	lui	ra,0x80000
 1e4:	fff0809b          	addiw	ra,ra,-1
 1e8:	40e0df13          	srai	t5,ra,0xe
 1ec:	00020eb7          	lui	t4,0x20
 1f0:	fffe8e9b          	addiw	t4,t4,-1
 1f4:	00a00193          	li	gp,10
 1f8:	1fdf1263          	bne	t5,t4,3dc <fail>

00000000000001fc <test_11>:
 1fc:	800000b7          	lui	ra,0x80000
 200:	fff0809b          	addiw	ra,ra,-1
 204:	41f0df13          	srai	t5,ra,0x1f
 208:	00000e93          	li	t4,0
 20c:	00b00193          	li	gp,11
 210:	1ddf1663          	bne	t5,t4,3dc <fail>

0000000000000214 <test_12>:
 214:	818180b7          	lui	ra,0x81818
 218:	1810809b          	addiw	ra,ra,385
 21c:	4000df13          	srai	t5,ra,0x0
 220:	81818eb7          	lui	t4,0x81818
 224:	181e8e9b          	addiw	t4,t4,385
 228:	00c00193          	li	gp,12
 22c:	1bdf1863          	bne	t5,t4,3dc <fail>

0000000000000230 <test_13>:
 230:	818180b7          	lui	ra,0x81818
 234:	1810809b          	addiw	ra,ra,385
 238:	4010df13          	srai	t5,ra,0x1
 23c:	c0c0ceb7          	lui	t4,0xc0c0c
 240:	0c0e8e9b          	addiw	t4,t4,192
 244:	00d00193          	li	gp,13
 248:	19df1a63          	bne	t5,t4,3dc <fail>

000000000000024c <test_14>:
 24c:	818180b7          	lui	ra,0x81818
 250:	1810809b          	addiw	ra,ra,385
 254:	4070df13          	srai	t5,ra,0x7
 258:	ff030eb7          	lui	t4,0xff030
 25c:	303e8e9b          	addiw	t4,t4,771
 260:	00e00193          	li	gp,14
 264:	17df1c63          	bne	t5,t4,3dc <fail>

0000000000000268 <test_15>:
 268:	818180b7          	lui	ra,0x81818
 26c:	1810809b          	addiw	ra,ra,385
 270:	40e0df13          	srai	t5,ra,0xe
 274:	fffe0eb7          	lui	t4,0xfffe0
 278:	606e8e9b          	addiw	t4,t4,1542
 27c:	00f00193          	li	gp,15
 280:	15df1e63          	bne	t5,t4,3dc <fail>

0000000000000284 <test_16>:
 284:	818180b7          	lui	ra,0x81818
 288:	1810809b          	addiw	ra,ra,385
 28c:	41f0df13          	srai	t5,ra,0x1f
 290:	fff00e93          	li	t4,-1
 294:	01000193          	li	gp,16
 298:	15df1263          	bne	t5,t4,3dc <fail>

000000000000029c <test_17>:
 29c:	800000b7          	lui	ra,0x80000
 2a0:	4070d093          	srai	ra,ra,0x7
 2a4:	ff000eb7          	lui	t4,0xff000
 2a8:	01100193          	li	gp,17
 2ac:	13d09863          	bne	ra,t4,3dc <fail>

00000000000002b0 <test_18>:
 2b0:	00000213          	li	tp,0
 2b4:	800000b7          	lui	ra,0x80000
 2b8:	4070df13          	srai	t5,ra,0x7
 2bc:	000f0313          	mv	t1,t5
 2c0:	00120213          	addi	tp,tp,1 # 1 <_start+0x1>
 2c4:	00200293          	li	t0,2
 2c8:	fe5216e3          	bne	tp,t0,2b4 <test_18+0x4>
 2cc:	ff000eb7          	lui	t4,0xff000
 2d0:	01200193          	li	gp,18
 2d4:	11d31463          	bne	t1,t4,3dc <fail>

00000000000002d8 <test_19>:
 2d8:	00000213          	li	tp,0
 2dc:	800000b7          	lui	ra,0x80000
 2e0:	40e0df13          	srai	t5,ra,0xe
 2e4:	00000013          	nop
 2e8:	000f0313          	mv	t1,t5
 2ec:	00120213          	addi	tp,tp,1 # 1 <_start+0x1>
 2f0:	00200293          	li	t0,2
 2f4:	fe5214e3          	bne	tp,t0,2dc <test_19+0x4>
 2f8:	fffe0eb7          	lui	t4,0xfffe0
 2fc:	01300193          	li	gp,19
 300:	0dd31e63          	bne	t1,t4,3dc <fail>

0000000000000304 <test_20>:
 304:	00000213          	li	tp,0
 308:	800000b7          	lui	ra,0x80000
 30c:	0010809b          	addiw	ra,ra,1
 310:	41f0df13          	srai	t5,ra,0x1f
 314:	00000013          	nop
 318:	00000013          	nop
 31c:	000f0313          	mv	t1,t5
 320:	00120213          	addi	tp,tp,1 # 1 <_start+0x1>
 324:	00200293          	li	t0,2
 328:	fe5210e3          	bne	tp,t0,308 <test_20+0x4>
 32c:	fff00e93          	li	t4,-1
 330:	01400193          	li	gp,20
 334:	0bd31463          	bne	t1,t4,3dc <fail>

0000000000000338 <test_21>:
 338:	00000213          	li	tp,0
 33c:	800000b7          	lui	ra,0x80000
 340:	4070df13          	srai	t5,ra,0x7
 344:	00120213          	addi	tp,tp,1 # 1 <_start+0x1>
 348:	00200293          	li	t0,2
 34c:	fe5218e3          	bne	tp,t0,33c <test_21+0x4>
 350:	ff000eb7          	lui	t4,0xff000
 354:	01500193          	li	gp,21
 358:	09df1263          	bne	t5,t4,3dc <fail>

000000000000035c <test_22>:
 35c:	00000213          	li	tp,0
 360:	800000b7          	lui	ra,0x80000
 364:	00000013          	nop
 368:	40e0df13          	srai	t5,ra,0xe
 36c:	00120213          	addi	tp,tp,1 # 1 <_start+0x1>
 370:	00200293          	li	t0,2
 374:	fe5216e3          	bne	tp,t0,360 <test_22+0x4>
 378:	fffe0eb7          	lui	t4,0xfffe0
 37c:	01600193          	li	gp,22
 380:	05df1e63          	bne	t5,t4,3dc <fail>

0000000000000384 <test_23>:
 384:	00000213          	li	tp,0
 388:	800000b7          	lui	ra,0x80000
 38c:	0010809b          	addiw	ra,ra,1
 390:	00000013          	nop
 394:	00000013          	nop
 398:	41f0df13          	srai	t5,ra,0x1f
 39c:	00120213          	addi	tp,tp,1 # 1 <_start+0x1>
 3a0:	00200293          	li	t0,2
 3a4:	fe5212e3          	bne	tp,t0,388 <test_23+0x4>
 3a8:	fff00e93          	li	t4,-1
 3ac:	01700193          	li	gp,23
 3b0:	03df1663          	bne	t5,t4,3dc <fail>

00000000000003b4 <test_24>:
 3b4:	40405093          	srai	ra,zero,0x4
 3b8:	00000e93          	li	t4,0
 3bc:	01800193          	li	gp,24
 3c0:	01d09e63          	bne	ra,t4,3dc <fail>

00000000000003c4 <test_25>:
 3c4:	02100093          	li	ra,33
 3c8:	40a0d013          	srai	zero,ra,0xa
 3cc:	00000e93          	li	t4,0
 3d0:	01900193          	li	gp,25
 3d4:	01d01463          	bne	zero,t4,3dc <fail>
 3d8:	00301c63          	bne	zero,gp,3f0 <pass>

00000000000003dc <fail>:
 3dc:	0ff0000f          	fence
 3e0:	00018063          	beqz	gp,3e0 <fail+0x4>
 3e4:	00119193          	slli	gp,gp,0x1
 3e8:	0011e193          	ori	gp,gp,1
 3ec:	00000073          	ecall

00000000000003f0 <pass>:
 3f0:	0ff0000f          	fence
 3f4:	00100193          	li	gp,1
 3f8:	00000073          	ecall
 3fc:	c0001073          	unimp
 400:	0000                	unimp
	...

Disassembly of section .tohost:

0000000000001000 <tohost>:
	...

0000000000001040 <fromhost>:
	...
