
rv64ui-p-bgeu:     file format elf64-littleriscv


Disassembly of section .text.init:

0000000000000000 <_start>:
   0:	008007b7          	lui	a5,0x800
   4:	ff878793          	addi	a5,a5,-8 # 7ffff8 <_end+0x7fdff8>
   8:	04100713          	li	a4,65
   c:	00e78023          	sb	a4,0(a5)
  10:	00e78023          	sb	a4,0(a5)
  14:	00e78023          	sb	a4,0(a5)
  18:	04c0006f          	j	64 <reset_vector>

000000000000001c <trap_vector>:
  1c:	34202f73          	csrr	t5,mcause
  20:	00800f93          	li	t6,8
  24:	03ff0a63          	beq	t5,t6,58 <write_tohost>
  28:	00900f93          	li	t6,9
  2c:	03ff0663          	beq	t5,t6,58 <write_tohost>
  30:	00b00f93          	li	t6,11
  34:	03ff0263          	beq	t5,t6,58 <write_tohost>
  38:	00000f17          	auipc	t5,0x0
  3c:	fc8f0f13          	addi	t5,t5,-56 # 0 <_start>
  40:	000f0463          	beqz	t5,48 <trap_vector+0x2c>
  44:	000f0067          	jr	t5
  48:	34202f73          	csrr	t5,mcause
  4c:	000f5463          	bgez	t5,54 <handle_exception>
  50:	0040006f          	j	54 <handle_exception>

0000000000000054 <handle_exception>:
  54:	5391e193          	ori	gp,gp,1337

0000000000000058 <write_tohost>:
  58:	00001f17          	auipc	t5,0x1
  5c:	fa3f2423          	sw	gp,-88(t5) # 1000 <tohost>
  60:	ff9ff06f          	j	58 <write_tohost>

0000000000000064 <reset_vector>:
  64:	f1402573          	csrr	a0,mhartid
  68:	00051063          	bnez	a0,68 <reset_vector+0x4>
  6c:	00000297          	auipc	t0,0x0
  70:	01028293          	addi	t0,t0,16 # 7c <reset_vector+0x18>
  74:	30529073          	csrw	mtvec,t0
  78:	18005073          	csrwi	satp,0
  7c:	00000297          	auipc	t0,0x0
  80:	02428293          	addi	t0,t0,36 # a0 <reset_vector+0x3c>
  84:	30529073          	csrw	mtvec,t0
  88:	0010029b          	addiw	t0,zero,1
  8c:	03529293          	slli	t0,t0,0x35
  90:	fff28293          	addi	t0,t0,-1
  94:	3b029073          	csrw	pmpaddr0,t0
  98:	01f00293          	li	t0,31
  9c:	3a029073          	csrw	pmpcfg0,t0
  a0:	00000297          	auipc	t0,0x0
  a4:	01828293          	addi	t0,t0,24 # b8 <reset_vector+0x54>
  a8:	30529073          	csrw	mtvec,t0
  ac:	30205073          	csrwi	medeleg,0
  b0:	30305073          	csrwi	mideleg,0
  b4:	30405073          	csrwi	mie,0
  b8:	00000193          	li	gp,0
  bc:	00000297          	auipc	t0,0x0
  c0:	f6028293          	addi	t0,t0,-160 # 1c <trap_vector>
  c4:	30529073          	csrw	mtvec,t0
  c8:	00100513          	li	a0,1
  cc:	01f51513          	slli	a0,a0,0x1f
  d0:	00055863          	bgez	a0,e0 <reset_vector+0x7c>
  d4:	0ff0000f          	fence
  d8:	00100193          	li	gp,1
  dc:	00000073          	ecall
  e0:	00000297          	auipc	t0,0x0
  e4:	f2028293          	addi	t0,t0,-224 # 0 <_start>
  e8:	00028e63          	beqz	t0,104 <reset_vector+0xa0>
  ec:	10529073          	csrw	stvec,t0
  f0:	0000b2b7          	lui	t0,0xb
  f4:	1092829b          	addiw	t0,t0,265
  f8:	30229073          	csrw	medeleg,t0
  fc:	30202373          	csrr	t1,medeleg
 100:	f4629ae3          	bne	t0,t1,54 <handle_exception>
 104:	30005073          	csrwi	mstatus,0
 108:	00000297          	auipc	t0,0x0
 10c:	01428293          	addi	t0,t0,20 # 11c <test_2>
 110:	34129073          	csrw	mepc,t0
 114:	f1402573          	csrr	a0,mhartid
 118:	30200073          	mret

000000000000011c <test_2>:
 11c:	00200193          	li	gp,2
 120:	00000093          	li	ra,0
 124:	00000113          	li	sp,0
 128:	0020f663          	bgeu	ra,sp,134 <test_2+0x18>
 12c:	3e301463          	bne	zero,gp,514 <fail>
 130:	00301663          	bne	zero,gp,13c <test_3>
 134:	fe20fee3          	bgeu	ra,sp,130 <test_2+0x14>
 138:	3c301e63          	bne	zero,gp,514 <fail>

000000000000013c <test_3>:
 13c:	00300193          	li	gp,3
 140:	00100093          	li	ra,1
 144:	00100113          	li	sp,1
 148:	0020f663          	bgeu	ra,sp,154 <test_3+0x18>
 14c:	3c301463          	bne	zero,gp,514 <fail>
 150:	00301663          	bne	zero,gp,15c <test_4>
 154:	fe20fee3          	bgeu	ra,sp,150 <test_3+0x14>
 158:	3a301e63          	bne	zero,gp,514 <fail>

000000000000015c <test_4>:
 15c:	00400193          	li	gp,4
 160:	0010009b          	addiw	ra,zero,1
 164:	02009093          	slli	ra,ra,0x20
 168:	fff08093          	addi	ra,ra,-1
 16c:	0010011b          	addiw	sp,zero,1
 170:	02011113          	slli	sp,sp,0x20
 174:	fff10113          	addi	sp,sp,-1
 178:	0020f663          	bgeu	ra,sp,184 <test_4+0x28>
 17c:	38301c63          	bne	zero,gp,514 <fail>
 180:	00301663          	bne	zero,gp,18c <test_5>
 184:	fe20fee3          	bgeu	ra,sp,180 <test_4+0x24>
 188:	38301663          	bne	zero,gp,514 <fail>

000000000000018c <test_5>:
 18c:	00500193          	li	gp,5
 190:	00100093          	li	ra,1
 194:	00000113          	li	sp,0
 198:	0020f663          	bgeu	ra,sp,1a4 <test_5+0x18>
 19c:	36301c63          	bne	zero,gp,514 <fail>
 1a0:	00301663          	bne	zero,gp,1ac <test_6>
 1a4:	fe20fee3          	bgeu	ra,sp,1a0 <test_5+0x14>
 1a8:	36301663          	bne	zero,gp,514 <fail>

00000000000001ac <test_6>:
 1ac:	00600193          	li	gp,6
 1b0:	0010009b          	addiw	ra,zero,1
 1b4:	02009093          	slli	ra,ra,0x20
 1b8:	fff08093          	addi	ra,ra,-1
 1bc:	0010011b          	addiw	sp,zero,1
 1c0:	02011113          	slli	sp,sp,0x20
 1c4:	ffe10113          	addi	sp,sp,-2
 1c8:	0020f663          	bgeu	ra,sp,1d4 <test_6+0x28>
 1cc:	34301463          	bne	zero,gp,514 <fail>
 1d0:	00301663          	bne	zero,gp,1dc <test_7>
 1d4:	fe20fee3          	bgeu	ra,sp,1d0 <test_6+0x24>
 1d8:	32301e63          	bne	zero,gp,514 <fail>

00000000000001dc <test_7>:
 1dc:	00700193          	li	gp,7
 1e0:	0010009b          	addiw	ra,zero,1
 1e4:	02009093          	slli	ra,ra,0x20
 1e8:	fff08093          	addi	ra,ra,-1
 1ec:	00000113          	li	sp,0
 1f0:	0020f663          	bgeu	ra,sp,1fc <test_7+0x20>
 1f4:	32301063          	bne	zero,gp,514 <fail>
 1f8:	00301663          	bne	zero,gp,204 <test_8>
 1fc:	fe20fee3          	bgeu	ra,sp,1f8 <test_7+0x1c>
 200:	30301a63          	bne	zero,gp,514 <fail>

0000000000000204 <test_8>:
 204:	00800193          	li	gp,8
 208:	00000093          	li	ra,0
 20c:	00100113          	li	sp,1
 210:	0020f463          	bgeu	ra,sp,218 <test_8+0x14>
 214:	00301463          	bne	zero,gp,21c <test_8+0x18>
 218:	2e301e63          	bne	zero,gp,514 <fail>
 21c:	fe20fee3          	bgeu	ra,sp,218 <test_8+0x14>

0000000000000220 <test_9>:
 220:	00900193          	li	gp,9
 224:	0010009b          	addiw	ra,zero,1
 228:	02009093          	slli	ra,ra,0x20
 22c:	ffe08093          	addi	ra,ra,-2
 230:	0010011b          	addiw	sp,zero,1
 234:	02011113          	slli	sp,sp,0x20
 238:	fff10113          	addi	sp,sp,-1
 23c:	0020f463          	bgeu	ra,sp,244 <test_9+0x24>
 240:	00301463          	bne	zero,gp,248 <test_9+0x28>
 244:	2c301863          	bne	zero,gp,514 <fail>
 248:	fe20fee3          	bgeu	ra,sp,244 <test_9+0x24>

000000000000024c <test_10>:
 24c:	00a00193          	li	gp,10
 250:	00000093          	li	ra,0
 254:	0010011b          	addiw	sp,zero,1
 258:	02011113          	slli	sp,sp,0x20
 25c:	fff10113          	addi	sp,sp,-1
 260:	0020f463          	bgeu	ra,sp,268 <test_10+0x1c>
 264:	00301463          	bne	zero,gp,26c <test_10+0x20>
 268:	2a301663          	bne	zero,gp,514 <fail>
 26c:	fe20fee3          	bgeu	ra,sp,268 <test_10+0x1c>

0000000000000270 <test_11>:
 270:	00b00193          	li	gp,11
 274:	800000b7          	lui	ra,0x80000
 278:	fff0809b          	addiw	ra,ra,-1
 27c:	0010011b          	addiw	sp,zero,1
 280:	01f11113          	slli	sp,sp,0x1f
 284:	0020f463          	bgeu	ra,sp,28c <test_11+0x1c>
 288:	00301463          	bne	zero,gp,290 <test_11+0x20>
 28c:	28301463          	bne	zero,gp,514 <fail>
 290:	fe20fee3          	bgeu	ra,sp,28c <test_11+0x1c>

0000000000000294 <test_12>:
 294:	00c00193          	li	gp,12
 298:	00000213          	li	tp,0
 29c:	00f0009b          	addiw	ra,zero,15
 2a0:	01c09093          	slli	ra,ra,0x1c
 2a4:	fff08093          	addi	ra,ra,-1 # ffffffff7fffffff <_end+0xffffffff7fffdfff>
 2a8:	00f0011b          	addiw	sp,zero,15
 2ac:	01c11113          	slli	sp,sp,0x1c
 2b0:	2620f263          	bgeu	ra,sp,514 <fail>
 2b4:	00120213          	addi	tp,tp,1 # 1 <_start+0x1>
 2b8:	00200293          	li	t0,2
 2bc:	fe5210e3          	bne	tp,t0,29c <test_12+0x8>

00000000000002c0 <test_13>:
 2c0:	00d00193          	li	gp,13
 2c4:	00000213          	li	tp,0
 2c8:	00f0009b          	addiw	ra,zero,15
 2cc:	01c09093          	slli	ra,ra,0x1c
 2d0:	fff08093          	addi	ra,ra,-1
 2d4:	00f0011b          	addiw	sp,zero,15
 2d8:	01c11113          	slli	sp,sp,0x1c
 2dc:	00000013          	nop
 2e0:	2220fa63          	bgeu	ra,sp,514 <fail>
 2e4:	00120213          	addi	tp,tp,1 # 1 <_start+0x1>
 2e8:	00200293          	li	t0,2
 2ec:	fc521ee3          	bne	tp,t0,2c8 <test_13+0x8>

00000000000002f0 <test_14>:
 2f0:	00e00193          	li	gp,14
 2f4:	00000213          	li	tp,0
 2f8:	00f0009b          	addiw	ra,zero,15
 2fc:	01c09093          	slli	ra,ra,0x1c
 300:	fff08093          	addi	ra,ra,-1
 304:	00f0011b          	addiw	sp,zero,15
 308:	01c11113          	slli	sp,sp,0x1c
 30c:	00000013          	nop
 310:	00000013          	nop
 314:	2020f063          	bgeu	ra,sp,514 <fail>
 318:	00120213          	addi	tp,tp,1 # 1 <_start+0x1>
 31c:	00200293          	li	t0,2
 320:	fc521ce3          	bne	tp,t0,2f8 <test_14+0x8>

0000000000000324 <test_15>:
 324:	00f00193          	li	gp,15
 328:	00000213          	li	tp,0
 32c:	00f0009b          	addiw	ra,zero,15
 330:	01c09093          	slli	ra,ra,0x1c
 334:	fff08093          	addi	ra,ra,-1
 338:	00000013          	nop
 33c:	00f0011b          	addiw	sp,zero,15
 340:	01c11113          	slli	sp,sp,0x1c
 344:	1c20f863          	bgeu	ra,sp,514 <fail>
 348:	00120213          	addi	tp,tp,1 # 1 <_start+0x1>
 34c:	00200293          	li	t0,2
 350:	fc521ee3          	bne	tp,t0,32c <test_15+0x8>

0000000000000354 <test_16>:
 354:	01000193          	li	gp,16
 358:	00000213          	li	tp,0
 35c:	00f0009b          	addiw	ra,zero,15
 360:	01c09093          	slli	ra,ra,0x1c
 364:	fff08093          	addi	ra,ra,-1
 368:	00000013          	nop
 36c:	00f0011b          	addiw	sp,zero,15
 370:	01c11113          	slli	sp,sp,0x1c
 374:	00000013          	nop
 378:	1820fe63          	bgeu	ra,sp,514 <fail>
 37c:	00120213          	addi	tp,tp,1 # 1 <_start+0x1>
 380:	00200293          	li	t0,2
 384:	fc521ce3          	bne	tp,t0,35c <test_16+0x8>

0000000000000388 <test_17>:
 388:	01100193          	li	gp,17
 38c:	00000213          	li	tp,0
 390:	00f0009b          	addiw	ra,zero,15
 394:	01c09093          	slli	ra,ra,0x1c
 398:	fff08093          	addi	ra,ra,-1
 39c:	00000013          	nop
 3a0:	00000013          	nop
 3a4:	00f0011b          	addiw	sp,zero,15
 3a8:	01c11113          	slli	sp,sp,0x1c
 3ac:	1620f463          	bgeu	ra,sp,514 <fail>
 3b0:	00120213          	addi	tp,tp,1 # 1 <_start+0x1>
 3b4:	00200293          	li	t0,2
 3b8:	fc521ce3          	bne	tp,t0,390 <test_17+0x8>

00000000000003bc <test_18>:
 3bc:	01200193          	li	gp,18
 3c0:	00000213          	li	tp,0
 3c4:	00f0009b          	addiw	ra,zero,15
 3c8:	01c09093          	slli	ra,ra,0x1c
 3cc:	fff08093          	addi	ra,ra,-1
 3d0:	00f0011b          	addiw	sp,zero,15
 3d4:	01c11113          	slli	sp,sp,0x1c
 3d8:	1220fe63          	bgeu	ra,sp,514 <fail>
 3dc:	00120213          	addi	tp,tp,1 # 1 <_start+0x1>
 3e0:	00200293          	li	t0,2
 3e4:	fe5210e3          	bne	tp,t0,3c4 <test_18+0x8>

00000000000003e8 <test_19>:
 3e8:	01300193          	li	gp,19
 3ec:	00000213          	li	tp,0
 3f0:	00f0009b          	addiw	ra,zero,15
 3f4:	01c09093          	slli	ra,ra,0x1c
 3f8:	fff08093          	addi	ra,ra,-1
 3fc:	00f0011b          	addiw	sp,zero,15
 400:	01c11113          	slli	sp,sp,0x1c
 404:	00000013          	nop
 408:	1020f663          	bgeu	ra,sp,514 <fail>
 40c:	00120213          	addi	tp,tp,1 # 1 <_start+0x1>
 410:	00200293          	li	t0,2
 414:	fc521ee3          	bne	tp,t0,3f0 <test_19+0x8>

0000000000000418 <test_20>:
 418:	01400193          	li	gp,20
 41c:	00000213          	li	tp,0
 420:	00f0009b          	addiw	ra,zero,15
 424:	01c09093          	slli	ra,ra,0x1c
 428:	fff08093          	addi	ra,ra,-1
 42c:	00f0011b          	addiw	sp,zero,15
 430:	01c11113          	slli	sp,sp,0x1c
 434:	00000013          	nop
 438:	00000013          	nop
 43c:	0c20fc63          	bgeu	ra,sp,514 <fail>
 440:	00120213          	addi	tp,tp,1 # 1 <_start+0x1>
 444:	00200293          	li	t0,2
 448:	fc521ce3          	bne	tp,t0,420 <test_20+0x8>

000000000000044c <test_21>:
 44c:	01500193          	li	gp,21
 450:	00000213          	li	tp,0
 454:	00f0009b          	addiw	ra,zero,15
 458:	01c09093          	slli	ra,ra,0x1c
 45c:	fff08093          	addi	ra,ra,-1
 460:	00000013          	nop
 464:	00f0011b          	addiw	sp,zero,15
 468:	01c11113          	slli	sp,sp,0x1c
 46c:	0a20f463          	bgeu	ra,sp,514 <fail>
 470:	00120213          	addi	tp,tp,1 # 1 <_start+0x1>
 474:	00200293          	li	t0,2
 478:	fc521ee3          	bne	tp,t0,454 <test_21+0x8>

000000000000047c <test_22>:
 47c:	01600193          	li	gp,22
 480:	00000213          	li	tp,0
 484:	00f0009b          	addiw	ra,zero,15
 488:	01c09093          	slli	ra,ra,0x1c
 48c:	fff08093          	addi	ra,ra,-1
 490:	00000013          	nop
 494:	00f0011b          	addiw	sp,zero,15
 498:	01c11113          	slli	sp,sp,0x1c
 49c:	00000013          	nop
 4a0:	0620fa63          	bgeu	ra,sp,514 <fail>
 4a4:	00120213          	addi	tp,tp,1 # 1 <_start+0x1>
 4a8:	00200293          	li	t0,2
 4ac:	fc521ce3          	bne	tp,t0,484 <test_22+0x8>

00000000000004b0 <test_23>:
 4b0:	01700193          	li	gp,23
 4b4:	00000213          	li	tp,0
 4b8:	00f0009b          	addiw	ra,zero,15
 4bc:	01c09093          	slli	ra,ra,0x1c
 4c0:	fff08093          	addi	ra,ra,-1
 4c4:	00000013          	nop
 4c8:	00000013          	nop
 4cc:	00f0011b          	addiw	sp,zero,15
 4d0:	01c11113          	slli	sp,sp,0x1c
 4d4:	0420f063          	bgeu	ra,sp,514 <fail>
 4d8:	00120213          	addi	tp,tp,1 # 1 <_start+0x1>
 4dc:	00200293          	li	t0,2
 4e0:	fc521ce3          	bne	tp,t0,4b8 <test_23+0x8>

00000000000004e4 <test_24>:
 4e4:	00100093          	li	ra,1
 4e8:	0000fa63          	bgeu	ra,zero,4fc <test_24+0x18>
 4ec:	00108093          	addi	ra,ra,1
 4f0:	00108093          	addi	ra,ra,1
 4f4:	00108093          	addi	ra,ra,1
 4f8:	00108093          	addi	ra,ra,1
 4fc:	00108093          	addi	ra,ra,1
 500:	00108093          	addi	ra,ra,1
 504:	00300e93          	li	t4,3
 508:	01800193          	li	gp,24
 50c:	01d09463          	bne	ra,t4,514 <fail>
 510:	00301c63          	bne	zero,gp,528 <pass>

0000000000000514 <fail>:
 514:	0ff0000f          	fence
 518:	00018063          	beqz	gp,518 <fail+0x4>
 51c:	00119193          	slli	gp,gp,0x1
 520:	0011e193          	ori	gp,gp,1
 524:	00000073          	ecall

0000000000000528 <pass>:
 528:	0ff0000f          	fence
 52c:	00100193          	li	gp,1
 530:	00000073          	ecall
 534:	c0001073          	unimp
	...

Disassembly of section .tohost:

0000000000001000 <tohost>:
	...

0000000000001040 <fromhost>:
	...
