
rv64ui-p-lh:     file format elf64-littleriscv


Disassembly of section .text.init:

0000000000000000 <_start>:
   0:	008007b7          	lui	a5,0x800
   4:	ff878793          	addi	a5,a5,-8 # 7ffff8 <_end+0x7fdfe8>
   8:	04100713          	li	a4,65
   c:	00e78023          	sb	a4,0(a5)
  10:	00e78023          	sb	a4,0(a5)
  14:	00e78023          	sb	a4,0(a5)
  18:	04c0006f          	j	64 <reset_vector>

000000000000001c <trap_vector>:
  1c:	34202f73          	csrr	t5,mcause
  20:	00800f93          	li	t6,8
  24:	03ff0a63          	beq	t5,t6,58 <write_tohost>
  28:	00900f93          	li	t6,9
  2c:	03ff0663          	beq	t5,t6,58 <write_tohost>
  30:	00b00f93          	li	t6,11
  34:	03ff0263          	beq	t5,t6,58 <write_tohost>
  38:	00000f17          	auipc	t5,0x0
  3c:	fc8f0f13          	addi	t5,t5,-56 # 0 <_start>
  40:	000f0463          	beqz	t5,48 <trap_vector+0x2c>
  44:	000f0067          	jr	t5
  48:	34202f73          	csrr	t5,mcause
  4c:	000f5463          	bgez	t5,54 <handle_exception>
  50:	0040006f          	j	54 <handle_exception>

0000000000000054 <handle_exception>:
  54:	5391e193          	ori	gp,gp,1337

0000000000000058 <write_tohost>:
  58:	00001f17          	auipc	t5,0x1
  5c:	fa3f2423          	sw	gp,-88(t5) # 1000 <tohost>
  60:	ff9ff06f          	j	58 <write_tohost>

0000000000000064 <reset_vector>:
  64:	f1402573          	csrr	a0,mhartid
  68:	00051063          	bnez	a0,68 <reset_vector+0x4>
  6c:	00000297          	auipc	t0,0x0
  70:	01028293          	addi	t0,t0,16 # 7c <reset_vector+0x18>
  74:	30529073          	csrw	mtvec,t0
  78:	18005073          	csrwi	satp,0
  7c:	00000297          	auipc	t0,0x0
  80:	02428293          	addi	t0,t0,36 # a0 <reset_vector+0x3c>
  84:	30529073          	csrw	mtvec,t0
  88:	0010029b          	addiw	t0,zero,1
  8c:	03529293          	slli	t0,t0,0x35
  90:	fff28293          	addi	t0,t0,-1
  94:	3b029073          	csrw	pmpaddr0,t0
  98:	01f00293          	li	t0,31
  9c:	3a029073          	csrw	pmpcfg0,t0
  a0:	00000297          	auipc	t0,0x0
  a4:	01828293          	addi	t0,t0,24 # b8 <reset_vector+0x54>
  a8:	30529073          	csrw	mtvec,t0
  ac:	30205073          	csrwi	medeleg,0
  b0:	30305073          	csrwi	mideleg,0
  b4:	30405073          	csrwi	mie,0
  b8:	00000193          	li	gp,0
  bc:	00000297          	auipc	t0,0x0
  c0:	f6028293          	addi	t0,t0,-160 # 1c <trap_vector>
  c4:	30529073          	csrw	mtvec,t0
  c8:	00100513          	li	a0,1
  cc:	01f51513          	slli	a0,a0,0x1f
  d0:	00055863          	bgez	a0,e0 <reset_vector+0x7c>
  d4:	0ff0000f          	fence
  d8:	00100193          	li	gp,1
  dc:	00000073          	ecall
  e0:	00000297          	auipc	t0,0x0
  e4:	f2028293          	addi	t0,t0,-224 # 0 <_start>
  e8:	00028e63          	beqz	t0,104 <reset_vector+0xa0>
  ec:	10529073          	csrw	stvec,t0
  f0:	0000b2b7          	lui	t0,0xb
  f4:	1092829b          	addiw	t0,t0,265
  f8:	30229073          	csrw	medeleg,t0
  fc:	30202373          	csrr	t1,medeleg
 100:	f4629ae3          	bne	t0,t1,54 <handle_exception>
 104:	30005073          	csrwi	mstatus,0
 108:	00000297          	auipc	t0,0x0
 10c:	01428293          	addi	t0,t0,20 # 11c <test_2>
 110:	34129073          	csrw	mepc,t0
 114:	f1402573          	csrr	a0,mhartid
 118:	30200073          	mret

000000000000011c <test_2>:
 11c:	00002097          	auipc	ra,0x2
 120:	ee408093          	addi	ra,ra,-284 # 2000 <begin_signature>
 124:	00009f03          	lh	t5,0(ra)
 128:	0ff00e93          	li	t4,255
 12c:	00200193          	li	gp,2
 130:	25df1c63          	bne	t5,t4,388 <fail>

0000000000000134 <test_3>:
 134:	00002097          	auipc	ra,0x2
 138:	ecc08093          	addi	ra,ra,-308 # 2000 <begin_signature>
 13c:	00209f03          	lh	t5,2(ra)
 140:	f0000e93          	li	t4,-256
 144:	00300193          	li	gp,3
 148:	25df1063          	bne	t5,t4,388 <fail>

000000000000014c <test_4>:
 14c:	00002097          	auipc	ra,0x2
 150:	eb408093          	addi	ra,ra,-332 # 2000 <begin_signature>
 154:	00409f03          	lh	t5,4(ra)
 158:	00001eb7          	lui	t4,0x1
 15c:	ff0e8e9b          	addiw	t4,t4,-16
 160:	00400193          	li	gp,4
 164:	23df1263          	bne	t5,t4,388 <fail>

0000000000000168 <test_5>:
 168:	00002097          	auipc	ra,0x2
 16c:	e9808093          	addi	ra,ra,-360 # 2000 <begin_signature>
 170:	00609f03          	lh	t5,6(ra)
 174:	fffffeb7          	lui	t4,0xfffff
 178:	00fe8e9b          	addiw	t4,t4,15
 17c:	00500193          	li	gp,5
 180:	21df1463          	bne	t5,t4,388 <fail>

0000000000000184 <test_6>:
 184:	00002097          	auipc	ra,0x2
 188:	e8208093          	addi	ra,ra,-382 # 2006 <tdat4>
 18c:	ffa09f03          	lh	t5,-6(ra)
 190:	0ff00e93          	li	t4,255
 194:	00600193          	li	gp,6
 198:	1fdf1863          	bne	t5,t4,388 <fail>

000000000000019c <test_7>:
 19c:	00002097          	auipc	ra,0x2
 1a0:	e6a08093          	addi	ra,ra,-406 # 2006 <tdat4>
 1a4:	ffc09f03          	lh	t5,-4(ra)
 1a8:	f0000e93          	li	t4,-256
 1ac:	00700193          	li	gp,7
 1b0:	1ddf1c63          	bne	t5,t4,388 <fail>

00000000000001b4 <test_8>:
 1b4:	00002097          	auipc	ra,0x2
 1b8:	e5208093          	addi	ra,ra,-430 # 2006 <tdat4>
 1bc:	ffe09f03          	lh	t5,-2(ra)
 1c0:	00001eb7          	lui	t4,0x1
 1c4:	ff0e8e9b          	addiw	t4,t4,-16
 1c8:	00800193          	li	gp,8
 1cc:	1bdf1e63          	bne	t5,t4,388 <fail>

00000000000001d0 <test_9>:
 1d0:	00002097          	auipc	ra,0x2
 1d4:	e3608093          	addi	ra,ra,-458 # 2006 <tdat4>
 1d8:	00009f03          	lh	t5,0(ra)
 1dc:	fffffeb7          	lui	t4,0xfffff
 1e0:	00fe8e9b          	addiw	t4,t4,15
 1e4:	00900193          	li	gp,9
 1e8:	1bdf1063          	bne	t5,t4,388 <fail>

00000000000001ec <test_10>:
 1ec:	00002097          	auipc	ra,0x2
 1f0:	e1408093          	addi	ra,ra,-492 # 2000 <begin_signature>
 1f4:	fe008093          	addi	ra,ra,-32
 1f8:	02009283          	lh	t0,32(ra)
 1fc:	0ff00e93          	li	t4,255
 200:	00a00193          	li	gp,10
 204:	19d29263          	bne	t0,t4,388 <fail>

0000000000000208 <test_11>:
 208:	00002097          	auipc	ra,0x2
 20c:	df808093          	addi	ra,ra,-520 # 2000 <begin_signature>
 210:	ffb08093          	addi	ra,ra,-5
 214:	00709283          	lh	t0,7(ra)
 218:	f0000e93          	li	t4,-256
 21c:	00b00193          	li	gp,11
 220:	17d29463          	bne	t0,t4,388 <fail>

0000000000000224 <test_12>:
 224:	00c00193          	li	gp,12
 228:	00000213          	li	tp,0
 22c:	00002097          	auipc	ra,0x2
 230:	dd608093          	addi	ra,ra,-554 # 2002 <tdat2>
 234:	00209f03          	lh	t5,2(ra)
 238:	000f0313          	mv	t1,t5
 23c:	00001eb7          	lui	t4,0x1
 240:	ff0e8e9b          	addiw	t4,t4,-16
 244:	15d31263          	bne	t1,t4,388 <fail>
 248:	00120213          	addi	tp,tp,1 # 1 <_start+0x1>
 24c:	00200293          	li	t0,2
 250:	fc521ee3          	bne	tp,t0,22c <test_12+0x8>

0000000000000254 <test_13>:
 254:	00d00193          	li	gp,13
 258:	00000213          	li	tp,0
 25c:	00002097          	auipc	ra,0x2
 260:	da808093          	addi	ra,ra,-600 # 2004 <tdat3>
 264:	00209f03          	lh	t5,2(ra)
 268:	00000013          	nop
 26c:	000f0313          	mv	t1,t5
 270:	fffffeb7          	lui	t4,0xfffff
 274:	00fe8e9b          	addiw	t4,t4,15
 278:	11d31863          	bne	t1,t4,388 <fail>
 27c:	00120213          	addi	tp,tp,1 # 1 <_start+0x1>
 280:	00200293          	li	t0,2
 284:	fc521ce3          	bne	tp,t0,25c <test_13+0x8>

0000000000000288 <test_14>:
 288:	00e00193          	li	gp,14
 28c:	00000213          	li	tp,0
 290:	00002097          	auipc	ra,0x2
 294:	d7008093          	addi	ra,ra,-656 # 2000 <begin_signature>
 298:	00209f03          	lh	t5,2(ra)
 29c:	00000013          	nop
 2a0:	00000013          	nop
 2a4:	000f0313          	mv	t1,t5
 2a8:	f0000e93          	li	t4,-256
 2ac:	0dd31e63          	bne	t1,t4,388 <fail>
 2b0:	00120213          	addi	tp,tp,1 # 1 <_start+0x1>
 2b4:	00200293          	li	t0,2
 2b8:	fc521ce3          	bne	tp,t0,290 <test_14+0x8>

00000000000002bc <test_15>:
 2bc:	00f00193          	li	gp,15
 2c0:	00000213          	li	tp,0
 2c4:	00002097          	auipc	ra,0x2
 2c8:	d3e08093          	addi	ra,ra,-706 # 2002 <tdat2>
 2cc:	00209f03          	lh	t5,2(ra)
 2d0:	00001eb7          	lui	t4,0x1
 2d4:	ff0e8e9b          	addiw	t4,t4,-16
 2d8:	0bdf1863          	bne	t5,t4,388 <fail>
 2dc:	00120213          	addi	tp,tp,1 # 1 <_start+0x1>
 2e0:	00200293          	li	t0,2
 2e4:	fe5210e3          	bne	tp,t0,2c4 <test_15+0x8>

00000000000002e8 <test_16>:
 2e8:	01000193          	li	gp,16
 2ec:	00000213          	li	tp,0
 2f0:	00002097          	auipc	ra,0x2
 2f4:	d1408093          	addi	ra,ra,-748 # 2004 <tdat3>
 2f8:	00000013          	nop
 2fc:	00209f03          	lh	t5,2(ra)
 300:	fffffeb7          	lui	t4,0xfffff
 304:	00fe8e9b          	addiw	t4,t4,15
 308:	09df1063          	bne	t5,t4,388 <fail>
 30c:	00120213          	addi	tp,tp,1 # 1 <_start+0x1>
 310:	00200293          	li	t0,2
 314:	fc521ee3          	bne	tp,t0,2f0 <test_16+0x8>

0000000000000318 <test_17>:
 318:	01100193          	li	gp,17
 31c:	00000213          	li	tp,0
 320:	00002097          	auipc	ra,0x2
 324:	ce008093          	addi	ra,ra,-800 # 2000 <begin_signature>
 328:	00000013          	nop
 32c:	00000013          	nop
 330:	00209f03          	lh	t5,2(ra)
 334:	f0000e93          	li	t4,-256
 338:	05df1863          	bne	t5,t4,388 <fail>
 33c:	00120213          	addi	tp,tp,1 # 1 <_start+0x1>
 340:	00200293          	li	t0,2
 344:	fc521ee3          	bne	tp,t0,320 <test_17+0x8>

0000000000000348 <test_18>:
 348:	00002297          	auipc	t0,0x2
 34c:	cb828293          	addi	t0,t0,-840 # 2000 <begin_signature>
 350:	00029103          	lh	sp,0(t0)
 354:	00200113          	li	sp,2
 358:	00200e93          	li	t4,2
 35c:	01200193          	li	gp,18
 360:	03d11463          	bne	sp,t4,388 <fail>

0000000000000364 <test_19>:
 364:	00002297          	auipc	t0,0x2
 368:	c9c28293          	addi	t0,t0,-868 # 2000 <begin_signature>
 36c:	00029103          	lh	sp,0(t0)
 370:	00000013          	nop
 374:	00200113          	li	sp,2
 378:	00200e93          	li	t4,2
 37c:	01300193          	li	gp,19
 380:	01d11463          	bne	sp,t4,388 <fail>
 384:	00301c63          	bne	zero,gp,39c <pass>

0000000000000388 <fail>:
 388:	0ff0000f          	fence
 38c:	00018063          	beqz	gp,38c <fail+0x4>
 390:	00119193          	slli	gp,gp,0x1
 394:	0011e193          	ori	gp,gp,1
 398:	00000073          	ecall

000000000000039c <pass>:
 39c:	0ff0000f          	fence
 3a0:	00100193          	li	gp,1
 3a4:	00000073          	ecall
 3a8:	c0001073          	unimp
	...

Disassembly of section .tohost:

0000000000001000 <tohost>:
	...

0000000000001040 <fromhost>:
	...
