
rv64ui-p-lhu:     file format elf64-littleriscv


Disassembly of section .text.init:

0000000000000000 <_start>:
   0:	008007b7          	lui	a5,0x800
   4:	ff878793          	addi	a5,a5,-8 # 7ffff8 <_end+0x7fdfe8>
   8:	04100713          	li	a4,65
   c:	00e78023          	sb	a4,0(a5)
  10:	00e78023          	sb	a4,0(a5)
  14:	00e78023          	sb	a4,0(a5)
  18:	04c0006f          	j	64 <reset_vector>

000000000000001c <trap_vector>:
  1c:	34202f73          	csrr	t5,mcause
  20:	00800f93          	li	t6,8
  24:	03ff0a63          	beq	t5,t6,58 <write_tohost>
  28:	00900f93          	li	t6,9
  2c:	03ff0663          	beq	t5,t6,58 <write_tohost>
  30:	00b00f93          	li	t6,11
  34:	03ff0263          	beq	t5,t6,58 <write_tohost>
  38:	00000f17          	auipc	t5,0x0
  3c:	fc8f0f13          	addi	t5,t5,-56 # 0 <_start>
  40:	000f0463          	beqz	t5,48 <trap_vector+0x2c>
  44:	000f0067          	jr	t5
  48:	34202f73          	csrr	t5,mcause
  4c:	000f5463          	bgez	t5,54 <handle_exception>
  50:	0040006f          	j	54 <handle_exception>

0000000000000054 <handle_exception>:
  54:	5391e193          	ori	gp,gp,1337

0000000000000058 <write_tohost>:
  58:	00001f17          	auipc	t5,0x1
  5c:	fa3f2423          	sw	gp,-88(t5) # 1000 <tohost>
  60:	ff9ff06f          	j	58 <write_tohost>

0000000000000064 <reset_vector>:
  64:	f1402573          	csrr	a0,mhartid
  68:	00051063          	bnez	a0,68 <reset_vector+0x4>
  6c:	00000297          	auipc	t0,0x0
  70:	01028293          	addi	t0,t0,16 # 7c <reset_vector+0x18>
  74:	30529073          	csrw	mtvec,t0
  78:	18005073          	csrwi	satp,0
  7c:	00000297          	auipc	t0,0x0
  80:	02428293          	addi	t0,t0,36 # a0 <reset_vector+0x3c>
  84:	30529073          	csrw	mtvec,t0
  88:	0010029b          	addiw	t0,zero,1
  8c:	03529293          	slli	t0,t0,0x35
  90:	fff28293          	addi	t0,t0,-1
  94:	3b029073          	csrw	pmpaddr0,t0
  98:	01f00293          	li	t0,31
  9c:	3a029073          	csrw	pmpcfg0,t0
  a0:	00000297          	auipc	t0,0x0
  a4:	01828293          	addi	t0,t0,24 # b8 <reset_vector+0x54>
  a8:	30529073          	csrw	mtvec,t0
  ac:	30205073          	csrwi	medeleg,0
  b0:	30305073          	csrwi	mideleg,0
  b4:	30405073          	csrwi	mie,0
  b8:	00000193          	li	gp,0
  bc:	00000297          	auipc	t0,0x0
  c0:	f6028293          	addi	t0,t0,-160 # 1c <trap_vector>
  c4:	30529073          	csrw	mtvec,t0
  c8:	00100513          	li	a0,1
  cc:	01f51513          	slli	a0,a0,0x1f
  d0:	00055863          	bgez	a0,e0 <reset_vector+0x7c>
  d4:	0ff0000f          	fence
  d8:	00100193          	li	gp,1
  dc:	00000073          	ecall
  e0:	00000297          	auipc	t0,0x0
  e4:	f2028293          	addi	t0,t0,-224 # 0 <_start>
  e8:	00028e63          	beqz	t0,104 <reset_vector+0xa0>
  ec:	10529073          	csrw	stvec,t0
  f0:	0000b2b7          	lui	t0,0xb
  f4:	1092829b          	addiw	t0,t0,265
  f8:	30229073          	csrw	medeleg,t0
  fc:	30202373          	csrr	t1,medeleg
 100:	f4629ae3          	bne	t0,t1,54 <handle_exception>
 104:	30005073          	csrwi	mstatus,0
 108:	00000297          	auipc	t0,0x0
 10c:	01428293          	addi	t0,t0,20 # 11c <test_2>
 110:	34129073          	csrw	mepc,t0
 114:	f1402573          	csrr	a0,mhartid
 118:	30200073          	mret

000000000000011c <test_2>:
 11c:	00002097          	auipc	ra,0x2
 120:	ee408093          	addi	ra,ra,-284 # 2000 <begin_signature>
 124:	0000df03          	lhu	t5,0(ra)
 128:	0ff00e93          	li	t4,255
 12c:	00200193          	li	gp,2
 130:	27df1663          	bne	t5,t4,39c <fail>

0000000000000134 <test_3>:
 134:	00002097          	auipc	ra,0x2
 138:	ecc08093          	addi	ra,ra,-308 # 2000 <begin_signature>
 13c:	0020df03          	lhu	t5,2(ra)
 140:	00010eb7          	lui	t4,0x10
 144:	f00e8e9b          	addiw	t4,t4,-256
 148:	00300193          	li	gp,3
 14c:	25df1863          	bne	t5,t4,39c <fail>

0000000000000150 <test_4>:
 150:	00002097          	auipc	ra,0x2
 154:	eb008093          	addi	ra,ra,-336 # 2000 <begin_signature>
 158:	0040df03          	lhu	t5,4(ra)
 15c:	00001eb7          	lui	t4,0x1
 160:	ff0e8e9b          	addiw	t4,t4,-16
 164:	00400193          	li	gp,4
 168:	23df1a63          	bne	t5,t4,39c <fail>

000000000000016c <test_5>:
 16c:	00002097          	auipc	ra,0x2
 170:	e9408093          	addi	ra,ra,-364 # 2000 <begin_signature>
 174:	0060df03          	lhu	t5,6(ra)
 178:	0000feb7          	lui	t4,0xf
 17c:	00fe8e9b          	addiw	t4,t4,15
 180:	00500193          	li	gp,5
 184:	21df1c63          	bne	t5,t4,39c <fail>

0000000000000188 <test_6>:
 188:	00002097          	auipc	ra,0x2
 18c:	e7e08093          	addi	ra,ra,-386 # 2006 <tdat4>
 190:	ffa0df03          	lhu	t5,-6(ra)
 194:	0ff00e93          	li	t4,255
 198:	00600193          	li	gp,6
 19c:	21df1063          	bne	t5,t4,39c <fail>

00000000000001a0 <test_7>:
 1a0:	00002097          	auipc	ra,0x2
 1a4:	e6608093          	addi	ra,ra,-410 # 2006 <tdat4>
 1a8:	ffc0df03          	lhu	t5,-4(ra)
 1ac:	00010eb7          	lui	t4,0x10
 1b0:	f00e8e9b          	addiw	t4,t4,-256
 1b4:	00700193          	li	gp,7
 1b8:	1fdf1263          	bne	t5,t4,39c <fail>

00000000000001bc <test_8>:
 1bc:	00002097          	auipc	ra,0x2
 1c0:	e4a08093          	addi	ra,ra,-438 # 2006 <tdat4>
 1c4:	ffe0df03          	lhu	t5,-2(ra)
 1c8:	00001eb7          	lui	t4,0x1
 1cc:	ff0e8e9b          	addiw	t4,t4,-16
 1d0:	00800193          	li	gp,8
 1d4:	1ddf1463          	bne	t5,t4,39c <fail>

00000000000001d8 <test_9>:
 1d8:	00002097          	auipc	ra,0x2
 1dc:	e2e08093          	addi	ra,ra,-466 # 2006 <tdat4>
 1e0:	0000df03          	lhu	t5,0(ra)
 1e4:	0000feb7          	lui	t4,0xf
 1e8:	00fe8e9b          	addiw	t4,t4,15
 1ec:	00900193          	li	gp,9
 1f0:	1bdf1663          	bne	t5,t4,39c <fail>

00000000000001f4 <test_10>:
 1f4:	00002097          	auipc	ra,0x2
 1f8:	e0c08093          	addi	ra,ra,-500 # 2000 <begin_signature>
 1fc:	fe008093          	addi	ra,ra,-32
 200:	0200d283          	lhu	t0,32(ra)
 204:	0ff00e93          	li	t4,255
 208:	00a00193          	li	gp,10
 20c:	19d29863          	bne	t0,t4,39c <fail>

0000000000000210 <test_11>:
 210:	00002097          	auipc	ra,0x2
 214:	df008093          	addi	ra,ra,-528 # 2000 <begin_signature>
 218:	ffb08093          	addi	ra,ra,-5
 21c:	0070d283          	lhu	t0,7(ra)
 220:	00010eb7          	lui	t4,0x10
 224:	f00e8e9b          	addiw	t4,t4,-256
 228:	00b00193          	li	gp,11
 22c:	17d29863          	bne	t0,t4,39c <fail>

0000000000000230 <test_12>:
 230:	00c00193          	li	gp,12
 234:	00000213          	li	tp,0
 238:	00002097          	auipc	ra,0x2
 23c:	dca08093          	addi	ra,ra,-566 # 2002 <tdat2>
 240:	0020df03          	lhu	t5,2(ra)
 244:	000f0313          	mv	t1,t5
 248:	00001eb7          	lui	t4,0x1
 24c:	ff0e8e9b          	addiw	t4,t4,-16
 250:	15d31663          	bne	t1,t4,39c <fail>
 254:	00120213          	addi	tp,tp,1 # 1 <_start+0x1>
 258:	00200293          	li	t0,2
 25c:	fc521ee3          	bne	tp,t0,238 <test_12+0x8>

0000000000000260 <test_13>:
 260:	00d00193          	li	gp,13
 264:	00000213          	li	tp,0
 268:	00002097          	auipc	ra,0x2
 26c:	d9c08093          	addi	ra,ra,-612 # 2004 <tdat3>
 270:	0020df03          	lhu	t5,2(ra)
 274:	00000013          	nop
 278:	000f0313          	mv	t1,t5
 27c:	0000feb7          	lui	t4,0xf
 280:	00fe8e9b          	addiw	t4,t4,15
 284:	11d31c63          	bne	t1,t4,39c <fail>
 288:	00120213          	addi	tp,tp,1 # 1 <_start+0x1>
 28c:	00200293          	li	t0,2
 290:	fc521ce3          	bne	tp,t0,268 <test_13+0x8>

0000000000000294 <test_14>:
 294:	00e00193          	li	gp,14
 298:	00000213          	li	tp,0
 29c:	00002097          	auipc	ra,0x2
 2a0:	d6408093          	addi	ra,ra,-668 # 2000 <begin_signature>
 2a4:	0020df03          	lhu	t5,2(ra)
 2a8:	00000013          	nop
 2ac:	00000013          	nop
 2b0:	000f0313          	mv	t1,t5
 2b4:	00010eb7          	lui	t4,0x10
 2b8:	f00e8e9b          	addiw	t4,t4,-256
 2bc:	0fd31063          	bne	t1,t4,39c <fail>
 2c0:	00120213          	addi	tp,tp,1 # 1 <_start+0x1>
 2c4:	00200293          	li	t0,2
 2c8:	fc521ae3          	bne	tp,t0,29c <test_14+0x8>

00000000000002cc <test_15>:
 2cc:	00f00193          	li	gp,15
 2d0:	00000213          	li	tp,0
 2d4:	00002097          	auipc	ra,0x2
 2d8:	d2e08093          	addi	ra,ra,-722 # 2002 <tdat2>
 2dc:	0020df03          	lhu	t5,2(ra)
 2e0:	00001eb7          	lui	t4,0x1
 2e4:	ff0e8e9b          	addiw	t4,t4,-16
 2e8:	0bdf1a63          	bne	t5,t4,39c <fail>
 2ec:	00120213          	addi	tp,tp,1 # 1 <_start+0x1>
 2f0:	00200293          	li	t0,2
 2f4:	fe5210e3          	bne	tp,t0,2d4 <test_15+0x8>

00000000000002f8 <test_16>:
 2f8:	01000193          	li	gp,16
 2fc:	00000213          	li	tp,0
 300:	00002097          	auipc	ra,0x2
 304:	d0408093          	addi	ra,ra,-764 # 2004 <tdat3>
 308:	00000013          	nop
 30c:	0020df03          	lhu	t5,2(ra)
 310:	0000feb7          	lui	t4,0xf
 314:	00fe8e9b          	addiw	t4,t4,15
 318:	09df1263          	bne	t5,t4,39c <fail>
 31c:	00120213          	addi	tp,tp,1 # 1 <_start+0x1>
 320:	00200293          	li	t0,2
 324:	fc521ee3          	bne	tp,t0,300 <test_16+0x8>

0000000000000328 <test_17>:
 328:	01100193          	li	gp,17
 32c:	00000213          	li	tp,0
 330:	00002097          	auipc	ra,0x2
 334:	cd008093          	addi	ra,ra,-816 # 2000 <begin_signature>
 338:	00000013          	nop
 33c:	00000013          	nop
 340:	0020df03          	lhu	t5,2(ra)
 344:	00010eb7          	lui	t4,0x10
 348:	f00e8e9b          	addiw	t4,t4,-256
 34c:	05df1863          	bne	t5,t4,39c <fail>
 350:	00120213          	addi	tp,tp,1 # 1 <_start+0x1>
 354:	00200293          	li	t0,2
 358:	fc521ce3          	bne	tp,t0,330 <test_17+0x8>

000000000000035c <test_18>:
 35c:	00002297          	auipc	t0,0x2
 360:	ca428293          	addi	t0,t0,-860 # 2000 <begin_signature>
 364:	0002d103          	lhu	sp,0(t0)
 368:	00200113          	li	sp,2
 36c:	00200e93          	li	t4,2
 370:	01200193          	li	gp,18
 374:	03d11463          	bne	sp,t4,39c <fail>

0000000000000378 <test_19>:
 378:	00002297          	auipc	t0,0x2
 37c:	c8828293          	addi	t0,t0,-888 # 2000 <begin_signature>
 380:	0002d103          	lhu	sp,0(t0)
 384:	00000013          	nop
 388:	00200113          	li	sp,2
 38c:	00200e93          	li	t4,2
 390:	01300193          	li	gp,19
 394:	01d11463          	bne	sp,t4,39c <fail>
 398:	00301c63          	bne	zero,gp,3b0 <pass>

000000000000039c <fail>:
 39c:	0ff0000f          	fence
 3a0:	00018063          	beqz	gp,3a0 <fail+0x4>
 3a4:	00119193          	slli	gp,gp,0x1
 3a8:	0011e193          	ori	gp,gp,1
 3ac:	00000073          	ecall

00000000000003b0 <pass>:
 3b0:	0ff0000f          	fence
 3b4:	00100193          	li	gp,1
 3b8:	00000073          	ecall
 3bc:	c0001073          	unimp
 3c0:	0000                	unimp
	...

Disassembly of section .tohost:

0000000000001000 <tohost>:
	...

0000000000001040 <fromhost>:
	...
