
/home/pan/Code/monitor/monitor.o:     file format elf64-littleriscv


Disassembly of section .text:

0000000000000000 <print>:
       0:	fd010113          	addi	sp,sp,-48
       4:	02813423          	sd	s0,40(sp)
       8:	03010413          	addi	s0,sp,48
       c:	fca43c23          	sd	a0,-40(s0)
      10:	fe042623          	sw	zero,-20(s0)
      14:	0300006f          	j	44 <.L2>

0000000000000018 <.L3>:
      18:	fec42783          	lw	a5,-20(s0)
      1c:	fd843703          	ld	a4,-40(s0)
      20:	00f70733          	add	a4,a4,a5
      24:	060417b7          	lui	a5,0x6041
      28:	00579793          	slli	a5,a5,0x5
      2c:	ff878793          	addi	a5,a5,-8 # 6040ff8 <.L195+0x603ee78>
      30:	00074703          	lbu	a4,0(a4)
      34:	00e78023          	sb	a4,0(a5)
      38:	fec42783          	lw	a5,-20(s0)
      3c:	0017879b          	addiw	a5,a5,1
      40:	fef42623          	sw	a5,-20(s0)

0000000000000044 <.L2>:
      44:	fec42783          	lw	a5,-20(s0)
      48:	fd843703          	ld	a4,-40(s0)
      4c:	00f707b3          	add	a5,a4,a5
      50:	0007c783          	lbu	a5,0(a5)
      54:	fc0792e3          	bnez	a5,18 <.L3>
      58:	00000013          	nop
      5c:	02813403          	ld	s0,40(sp)
      60:	03010113          	addi	sp,sp,48
      64:	00008067          	ret

0000000000000068 <strcmp>:
      68:	fd010113          	addi	sp,sp,-48
      6c:	02813423          	sd	s0,40(sp)
      70:	03010413          	addi	s0,sp,48
      74:	fca43c23          	sd	a0,-40(s0)
      78:	fcb43823          	sd	a1,-48(s0)
      7c:	fe042623          	sw	zero,-20(s0)
      80:	0100006f          	j	90 <.L5>

0000000000000084 <.L7>:
      84:	fec42783          	lw	a5,-20(s0)
      88:	0017879b          	addiw	a5,a5,1
      8c:	fef42623          	sw	a5,-20(s0)

0000000000000090 <.L5>:
      90:	fec42783          	lw	a5,-20(s0)
      94:	fd843703          	ld	a4,-40(s0)
      98:	00f707b3          	add	a5,a4,a5
      9c:	0007c783          	lbu	a5,0(a5)
      a0:	04078063          	beqz	a5,e0 <.L6>
      a4:	fec42783          	lw	a5,-20(s0)
      a8:	fd043703          	ld	a4,-48(s0)
      ac:	00f707b3          	add	a5,a4,a5
      b0:	0007c783          	lbu	a5,0(a5)
      b4:	02078663          	beqz	a5,e0 <.L6>
      b8:	fec42783          	lw	a5,-20(s0)
      bc:	fd843703          	ld	a4,-40(s0)
      c0:	00f707b3          	add	a5,a4,a5
      c4:	0007c683          	lbu	a3,0(a5)
      c8:	fec42783          	lw	a5,-20(s0)
      cc:	fd043703          	ld	a4,-48(s0)
      d0:	00f707b3          	add	a5,a4,a5
      d4:	0007c783          	lbu	a5,0(a5)
      d8:	00068713          	mv	a4,a3
      dc:	faf704e3          	beq	a4,a5,84 <.L7>

00000000000000e0 <.L6>:
      e0:	fec42783          	lw	a5,-20(s0)
      e4:	fd843703          	ld	a4,-40(s0)
      e8:	00f707b3          	add	a5,a4,a5
      ec:	0007c783          	lbu	a5,0(a5)
      f0:	02078063          	beqz	a5,110 <.L8>
      f4:	fec42783          	lw	a5,-20(s0)
      f8:	fd043703          	ld	a4,-48(s0)
      fc:	00f707b3          	add	a5,a4,a5
     100:	0007c783          	lbu	a5,0(a5)
     104:	00078663          	beqz	a5,110 <.L8>
     108:	00100793          	li	a5,1
     10c:	0080006f          	j	114 <.L9>

0000000000000110 <.L8>:
     110:	00000793          	li	a5,0

0000000000000114 <.L9>:
     114:	00078513          	mv	a0,a5
     118:	02813403          	ld	s0,40(sp)
     11c:	03010113          	addi	sp,sp,48
     120:	00008067          	ret

0000000000000124 <get_line>:
     124:	fe010113          	addi	sp,sp,-32
     128:	00813c23          	sd	s0,24(sp)
     12c:	02010413          	addi	s0,sp,32
     130:	fff00793          	li	a5,-1
     134:	fef42623          	sw	a5,-20(s0)

0000000000000138 <.L14>:
     138:	fec42783          	lw	a5,-20(s0)
     13c:	0017879b          	addiw	a5,a5,1
     140:	fef42623          	sw	a5,-20(s0)
     144:	00000013          	nop

0000000000000148 <.L12>:
     148:	00000797          	auipc	a5,0x0
     14c:	00078793          	mv	a5,a5
     150:	0007a703          	lw	a4,0(a5) # 148 <.L12>
     154:	00000797          	auipc	a5,0x0
     158:	00078793          	mv	a5,a5
     15c:	0007a783          	lw	a5,0(a5) # 154 <.L12+0xc>
     160:	fef704e3          	beq	a4,a5,148 <.L12>
     164:	00000797          	auipc	a5,0x0
     168:	00078793          	mv	a5,a5
     16c:	0007a783          	lw	a5,0(a5) # 164 <.L12+0x1c>
     170:	0017871b          	addiw	a4,a5,1
     174:	0007069b          	sext.w	a3,a4
     178:	00000717          	auipc	a4,0x0
     17c:	00070713          	mv	a4,a4
     180:	00d72023          	sw	a3,0(a4) # 178 <.L12+0x30>
     184:	00000717          	auipc	a4,0x0
     188:	00070713          	mv	a4,a4
     18c:	00f707b3          	add	a5,a4,a5
     190:	0007c703          	lbu	a4,0(a5)
     194:	00000697          	auipc	a3,0x0
     198:	00068693          	mv	a3,a3
     19c:	fec42783          	lw	a5,-20(s0)
     1a0:	00f687b3          	add	a5,a3,a5
     1a4:	00e78023          	sb	a4,0(a5)
     1a8:	00000797          	auipc	a5,0x0
     1ac:	00078793          	mv	a5,a5
     1b0:	0007a783          	lw	a5,0(a5) # 1a8 <.L12+0x60>
     1b4:	00078713          	mv	a4,a5
     1b8:	04000793          	li	a5,64
     1bc:	00f71863          	bne	a4,a5,1cc <.L13>
     1c0:	00000797          	auipc	a5,0x0
     1c4:	00078793          	mv	a5,a5
     1c8:	0007a023          	sw	zero,0(a5) # 1c0 <.L12+0x78>

00000000000001cc <.L13>:
     1cc:	00000717          	auipc	a4,0x0
     1d0:	00070713          	mv	a4,a4
     1d4:	fec42783          	lw	a5,-20(s0)
     1d8:	00f707b3          	add	a5,a4,a5
     1dc:	0007c783          	lbu	a5,0(a5)
     1e0:	00078713          	mv	a4,a5
     1e4:	00a00793          	li	a5,10
     1e8:	f4f718e3          	bne	a4,a5,138 <.L14>
     1ec:	fec42783          	lw	a5,-20(s0)
     1f0:	0007879b          	sext.w	a5,a5
     1f4:	02f05c63          	blez	a5,22c <.L15>
     1f8:	fec42783          	lw	a5,-20(s0)
     1fc:	fff7879b          	addiw	a5,a5,-1
     200:	0007879b          	sext.w	a5,a5
     204:	00000717          	auipc	a4,0x0
     208:	00070713          	mv	a4,a4
     20c:	00f707b3          	add	a5,a4,a5
     210:	0007c783          	lbu	a5,0(a5)
     214:	00078713          	mv	a4,a5
     218:	00d00793          	li	a5,13
     21c:	00f71863          	bne	a4,a5,22c <.L15>
     220:	fec42783          	lw	a5,-20(s0)
     224:	fff7879b          	addiw	a5,a5,-1
     228:	fef42623          	sw	a5,-20(s0)

000000000000022c <.L15>:
     22c:	00000717          	auipc	a4,0x0
     230:	00070713          	mv	a4,a4
     234:	fec42783          	lw	a5,-20(s0)
     238:	00f707b3          	add	a5,a4,a5
     23c:	00078023          	sb	zero,0(a5)
     240:	00000013          	nop
     244:	01813403          	ld	s0,24(sp)
     248:	02010113          	addi	sp,sp,32
     24c:	00008067          	ret

0000000000000250 <hex2str>:
     250:	fd010113          	addi	sp,sp,-48
     254:	02813423          	sd	s0,40(sp)
     258:	03010413          	addi	s0,sp,48
     25c:	00050793          	mv	a5,a0
     260:	fcb43823          	sd	a1,-48(s0)
     264:	fcf42e23          	sw	a5,-36(s0)
     268:	fd043783          	ld	a5,-48(s0)
     26c:	03000713          	li	a4,48
     270:	00e78023          	sb	a4,0(a5)
     274:	fd043783          	ld	a5,-48(s0)
     278:	00178793          	addi	a5,a5,1
     27c:	07800713          	li	a4,120
     280:	00e78023          	sb	a4,0(a5)
     284:	fe042623          	sw	zero,-20(s0)
     288:	0740006f          	j	2fc <.L17>

000000000000028c <.L18>:
     28c:	00700713          	li	a4,7
     290:	fec42783          	lw	a5,-20(s0)
     294:	40f707bb          	subw	a5,a4,a5
     298:	0007879b          	sext.w	a5,a5
     29c:	0027979b          	slliw	a5,a5,0x2
     2a0:	0007879b          	sext.w	a5,a5
     2a4:	00078713          	mv	a4,a5
     2a8:	fdc42783          	lw	a5,-36(s0)
     2ac:	00e7d7bb          	srlw	a5,a5,a4
     2b0:	0007879b          	sext.w	a5,a5
     2b4:	00f7f793          	andi	a5,a5,15
     2b8:	0007871b          	sext.w	a4,a5
     2bc:	fec42783          	lw	a5,-20(s0)
     2c0:	0027879b          	addiw	a5,a5,2
     2c4:	0007879b          	sext.w	a5,a5
     2c8:	00078693          	mv	a3,a5
     2cc:	fd043783          	ld	a5,-48(s0)
     2d0:	00d787b3          	add	a5,a5,a3
     2d4:	00000697          	auipc	a3,0x0
     2d8:	00068693          	mv	a3,a3
     2dc:	02071713          	slli	a4,a4,0x20
     2e0:	02075713          	srli	a4,a4,0x20
     2e4:	00e68733          	add	a4,a3,a4
     2e8:	00074703          	lbu	a4,0(a4) # 22c <.L15>
     2ec:	00e78023          	sb	a4,0(a5)
     2f0:	fec42783          	lw	a5,-20(s0)
     2f4:	0017879b          	addiw	a5,a5,1
     2f8:	fef42623          	sw	a5,-20(s0)

00000000000002fc <.L17>:
     2fc:	fec42783          	lw	a5,-20(s0)
     300:	0007871b          	sext.w	a4,a5
     304:	00700793          	li	a5,7
     308:	f8e7d2e3          	bge	a5,a4,28c <.L18>
     30c:	fd043783          	ld	a5,-48(s0)
     310:	00a78793          	addi	a5,a5,10
     314:	00078023          	sb	zero,0(a5)
     318:	00000013          	nop
     31c:	02813403          	ld	s0,40(sp)
     320:	03010113          	addi	sp,sp,48
     324:	00008067          	ret

0000000000000328 <print_hex>:
     328:	fd010113          	addi	sp,sp,-48
     32c:	02113423          	sd	ra,40(sp)
     330:	02813023          	sd	s0,32(sp)
     334:	03010413          	addi	s0,sp,48
     338:	00050793          	mv	a5,a0
     33c:	fcf42e23          	sw	a5,-36(s0)
     340:	fe040713          	addi	a4,s0,-32
     344:	fdc42783          	lw	a5,-36(s0)
     348:	00070593          	mv	a1,a4
     34c:	00078513          	mv	a0,a5
     350:	00000097          	auipc	ra,0x0
     354:	000080e7          	jalr	ra # 350 <print_hex+0x28>
     358:	fe040793          	addi	a5,s0,-32
     35c:	00078513          	mv	a0,a5
     360:	00000097          	auipc	ra,0x0
     364:	000080e7          	jalr	ra # 360 <print_hex+0x38>
     368:	00000013          	nop
     36c:	02813083          	ld	ra,40(sp)
     370:	02013403          	ld	s0,32(sp)
     374:	03010113          	addi	sp,sp,48
     378:	00008067          	ret

000000000000037c <hexchar2int>:
     37c:	fe010113          	addi	sp,sp,-32
     380:	00813c23          	sd	s0,24(sp)
     384:	02010413          	addi	s0,sp,32
     388:	00050793          	mv	a5,a0
     38c:	fef407a3          	sb	a5,-17(s0)
     390:	fef44783          	lbu	a5,-17(s0)
     394:	0ff7f713          	andi	a4,a5,255
     398:	02f00793          	li	a5,47
     39c:	02e7f663          	bgeu	a5,a4,3c8 <.L21>
     3a0:	fef44783          	lbu	a5,-17(s0)
     3a4:	0ff7f713          	andi	a4,a5,255
     3a8:	03900793          	li	a5,57
     3ac:	00e7ee63          	bltu	a5,a4,3c8 <.L21>
     3b0:	fef44783          	lbu	a5,-17(s0)
     3b4:	0007879b          	sext.w	a5,a5
     3b8:	fd07879b          	addiw	a5,a5,-48
     3bc:	0007879b          	sext.w	a5,a5
     3c0:	0007879b          	sext.w	a5,a5
     3c4:	0180006f          	j	3dc <.L22>

00000000000003c8 <.L21>:
     3c8:	fef44783          	lbu	a5,-17(s0)
     3cc:	0007879b          	sext.w	a5,a5
     3d0:	fa97879b          	addiw	a5,a5,-87
     3d4:	0007879b          	sext.w	a5,a5
     3d8:	0007879b          	sext.w	a5,a5

00000000000003dc <.L22>:
     3dc:	00078513          	mv	a0,a5
     3e0:	01813403          	ld	s0,24(sp)
     3e4:	02010113          	addi	sp,sp,32
     3e8:	00008067          	ret

00000000000003ec <str2hex>:
     3ec:	fc010113          	addi	sp,sp,-64
     3f0:	02113c23          	sd	ra,56(sp)
     3f4:	02813823          	sd	s0,48(sp)
     3f8:	02913423          	sd	s1,40(sp)
     3fc:	04010413          	addi	s0,sp,64
     400:	fca43423          	sd	a0,-56(s0)
     404:	fc843783          	ld	a5,-56(s0)
     408:	00278793          	addi	a5,a5,2
     40c:	fcf43423          	sd	a5,-56(s0)
     410:	fc042e23          	sw	zero,-36(s0)
     414:	0440006f          	j	458 <.L24>

0000000000000418 <.L26>:
     418:	fdc42783          	lw	a5,-36(s0)
     41c:	0047979b          	slliw	a5,a5,0x4
     420:	0007849b          	sext.w	s1,a5
     424:	fc843783          	ld	a5,-56(s0)
     428:	0007c783          	lbu	a5,0(a5)
     42c:	00078513          	mv	a0,a5
     430:	00000097          	auipc	ra,0x0
     434:	000080e7          	jalr	ra # 430 <.L26+0x18>
     438:	00050793          	mv	a5,a0
     43c:	0007879b          	sext.w	a5,a5
     440:	00048713          	mv	a4,s1
     444:	00f767b3          	or	a5,a4,a5
     448:	fcf42e23          	sw	a5,-36(s0)
     44c:	fc843783          	ld	a5,-56(s0)
     450:	00178793          	addi	a5,a5,1
     454:	fcf43423          	sd	a5,-56(s0)

0000000000000458 <.L24>:
     458:	fc843783          	ld	a5,-56(s0)
     45c:	0007c783          	lbu	a5,0(a5)
     460:	00078c63          	beqz	a5,478 <.L25>
     464:	fc843783          	ld	a5,-56(s0)
     468:	0007c783          	lbu	a5,0(a5)
     46c:	00078713          	mv	a4,a5
     470:	02000793          	li	a5,32
     474:	faf712e3          	bne	a4,a5,418 <.L26>

0000000000000478 <.L25>:
     478:	fdc42783          	lw	a5,-36(s0)
     47c:	00078513          	mv	a0,a5
     480:	03813083          	ld	ra,56(sp)
     484:	03013403          	ld	s0,48(sp)
     488:	02813483          	ld	s1,40(sp)
     48c:	04010113          	addi	sp,sp,64
     490:	00008067          	ret

0000000000000494 <print_help>:
     494:	ff010113          	addi	sp,sp,-16
     498:	00113423          	sd	ra,8(sp)
     49c:	00813023          	sd	s0,0(sp)
     4a0:	01010413          	addi	s0,sp,16
     4a4:	00000517          	auipc	a0,0x0
     4a8:	00050513          	mv	a0,a0
     4ac:	00000097          	auipc	ra,0x0
     4b0:	000080e7          	jalr	ra # 4ac <print_help+0x18>
     4b4:	00000517          	auipc	a0,0x0
     4b8:	00050513          	mv	a0,a0
     4bc:	00000097          	auipc	ra,0x0
     4c0:	000080e7          	jalr	ra # 4bc <print_help+0x28>
     4c4:	00000517          	auipc	a0,0x0
     4c8:	00050513          	mv	a0,a0
     4cc:	00000097          	auipc	ra,0x0
     4d0:	000080e7          	jalr	ra # 4cc <print_help+0x38>
     4d4:	00000517          	auipc	a0,0x0
     4d8:	00050513          	mv	a0,a0
     4dc:	00000097          	auipc	ra,0x0
     4e0:	000080e7          	jalr	ra # 4dc <print_help+0x48>
     4e4:	00000517          	auipc	a0,0x0
     4e8:	00050513          	mv	a0,a0
     4ec:	00000097          	auipc	ra,0x0
     4f0:	000080e7          	jalr	ra # 4ec <print_help+0x58>
     4f4:	00000517          	auipc	a0,0x0
     4f8:	00050513          	mv	a0,a0
     4fc:	00000097          	auipc	ra,0x0
     500:	000080e7          	jalr	ra # 4fc <print_help+0x68>
     504:	00000517          	auipc	a0,0x0
     508:	00050513          	mv	a0,a0
     50c:	00000097          	auipc	ra,0x0
     510:	000080e7          	jalr	ra # 50c <print_help+0x78>
     514:	00000517          	auipc	a0,0x0
     518:	00050513          	mv	a0,a0
     51c:	00000097          	auipc	ra,0x0
     520:	000080e7          	jalr	ra # 51c <print_help+0x88>
     524:	00000013          	nop
     528:	00813083          	ld	ra,8(sp)
     52c:	00013403          	ld	s0,0(sp)
     530:	01010113          	addi	sp,sp,16
     534:	00008067          	ret

0000000000000538 <trap>:
     538:	fa010113          	addi	sp,sp,-96
     53c:	04113c23          	sd	ra,88(sp)
     540:	04813823          	sd	s0,80(sp)
     544:	06010413          	addi	s0,sp,96
     548:	342027f3          	csrr	a5,mcause
     54c:	fef43023          	sd	a5,-32(s0)
     550:	fe043783          	ld	a5,-32(s0)
     554:	fcf42e23          	sw	a5,-36(s0)
     558:	fe042623          	sw	zero,-20(s0)
     55c:	fdc42783          	lw	a5,-36(s0)
     560:	2207d263          	bgez	a5,784 <.L30>
     564:	fdc42703          	lw	a4,-36(s0)
     568:	800007b7          	lui	a5,0x80000
     56c:	fff7c793          	not	a5,a5
     570:	00f777b3          	and	a5,a4,a5
     574:	0007871b          	sext.w	a4,a5
     578:	00070693          	mv	a3,a4
     57c:	00700793          	li	a5,7
     580:	00f68863          	beq	a3,a5,590 <.L31>
     584:	00b00793          	li	a5,11
     588:	08f70063          	beq	a4,a5,608 <.L32>
     58c:	1400006f          	j	6cc <.L53>

0000000000000590 <.L31>:
     590:	060417b7          	lui	a5,0x6041
     594:	00579793          	slli	a5,a5,0x5
     598:	fcc78793          	addi	a5,a5,-52 # 6040fcc <.L195+0x603ee4c>
     59c:	0007a023          	sw	zero,0(a5)
     5a0:	060417b7          	lui	a5,0x6041
     5a4:	00579793          	slli	a5,a5,0x5
     5a8:	fc878793          	addi	a5,a5,-56 # 6040fc8 <.L195+0x603ee48>
     5ac:	0007a023          	sw	zero,0(a5)
     5b0:	00000797          	auipc	a5,0x0
     5b4:	00078793          	mv	a5,a5
     5b8:	0007a783          	lw	a5,0(a5) # 5b0 <.L31+0x20>
     5bc:	18078c63          	beqz	a5,754 <.L55>
     5c0:	00000797          	auipc	a5,0x0
     5c4:	00078793          	mv	a5,a5
     5c8:	0007a783          	lw	a5,0(a5) # 5c0 <.L31+0x30>
     5cc:	0017879b          	addiw	a5,a5,1
     5d0:	0007871b          	sext.w	a4,a5
     5d4:	00000797          	auipc	a5,0x0
     5d8:	00078793          	mv	a5,a5
     5dc:	00e7a023          	sw	a4,0(a5) # 5d4 <.L31+0x44>
     5e0:	00000797          	auipc	a5,0x0
     5e4:	00078793          	mv	a5,a5
     5e8:	0007a703          	lw	a4,0(a5) # 5e0 <.L31+0x50>
     5ec:	00000797          	auipc	a5,0x0
     5f0:	00078793          	mv	a5,a5
     5f4:	0007a783          	lw	a5,0(a5) # 5ec <.L31+0x5c>
     5f8:	14f76e63          	bltu	a4,a5,754 <.L55>
     5fc:	00100793          	li	a5,1
     600:	fef42623          	sw	a5,-20(s0)
     604:	1500006f          	j	754 <.L55>

0000000000000608 <.L32>:
     608:	060417b7          	lui	a5,0x6041
     60c:	00579793          	slli	a5,a5,0x5
     610:	ff078793          	addi	a5,a5,-16 # 6040ff0 <.L195+0x603ee70>
     614:	0007a783          	lw	a5,0(a5)
     618:	fcf42c23          	sw	a5,-40(s0)
     61c:	fd842783          	lw	a5,-40(s0)
     620:	0007871b          	sext.w	a4,a5
     624:	00100793          	li	a5,1
     628:	08f71663          	bne	a4,a5,6b4 <.L36>
     62c:	0680006f          	j	694 <.L37>

0000000000000630 <.L38>:
     630:	060417b7          	lui	a5,0x6041
     634:	00579793          	slli	a5,a5,0x5
     638:	ff878713          	addi	a4,a5,-8 # 6040ff8 <.L195+0x603ee78>
     63c:	00000797          	auipc	a5,0x0
     640:	00078793          	mv	a5,a5
     644:	0007a783          	lw	a5,0(a5) # 63c <.L38+0xc>
     648:	0017869b          	addiw	a3,a5,1
     64c:	0006861b          	sext.w	a2,a3
     650:	00000697          	auipc	a3,0x0
     654:	00068693          	mv	a3,a3
     658:	00c6a023          	sw	a2,0(a3) # 650 <.L38+0x20>
     65c:	00074703          	lbu	a4,0(a4)
     660:	00000697          	auipc	a3,0x0
     664:	00068693          	mv	a3,a3
     668:	00f687b3          	add	a5,a3,a5
     66c:	00e78023          	sb	a4,0(a5)
     670:	00000797          	auipc	a5,0x0
     674:	00078793          	mv	a5,a5
     678:	0007a783          	lw	a5,0(a5) # 670 <.L38+0x40>
     67c:	00078713          	mv	a4,a5
     680:	04000793          	li	a5,64
     684:	00f71863          	bne	a4,a5,694 <.L37>
     688:	00000797          	auipc	a5,0x0
     68c:	00078793          	mv	a5,a5
     690:	0007a023          	sw	zero,0(a5) # 688 <.L38+0x58>

0000000000000694 <.L37>:
     694:	060417b7          	lui	a5,0x6041
     698:	00579793          	slli	a5,a5,0x5
     69c:	ffc78793          	addi	a5,a5,-4 # 6040ffc <.L195+0x603ee7c>
     6a0:	0007a783          	lw	a5,0(a5)
     6a4:	0f07f793          	andi	a5,a5,240
     6a8:	0007879b          	sext.w	a5,a5
     6ac:	f80792e3          	bnez	a5,630 <.L38>
     6b0:	00000013          	nop

00000000000006b4 <.L36>:
     6b4:	060417b7          	lui	a5,0x6041
     6b8:	00579793          	slli	a5,a5,0x5
     6bc:	ff078793          	addi	a5,a5,-16 # 6040ff0 <.L195+0x603ee70>
     6c0:	fd842703          	lw	a4,-40(s0)
     6c4:	00e7a023          	sw	a4,0(a5)
     6c8:	0900006f          	j	758 <.L35>

00000000000006cc <.L53>:
     6cc:	00000517          	auipc	a0,0x0
     6d0:	00050513          	mv	a0,a0
     6d4:	00000097          	auipc	ra,0x0
     6d8:	000080e7          	jalr	ra # 6d4 <.L53+0x8>
     6dc:	00000517          	auipc	a0,0x0
     6e0:	00050513          	mv	a0,a0
     6e4:	00000097          	auipc	ra,0x0
     6e8:	000080e7          	jalr	ra # 6e4 <.L53+0x18>
     6ec:	fdc42783          	lw	a5,-36(s0)
     6f0:	00078513          	mv	a0,a5
     6f4:	00000097          	auipc	ra,0x0
     6f8:	000080e7          	jalr	ra # 6f4 <.L53+0x28>
     6fc:	00000517          	auipc	a0,0x0
     700:	00050513          	mv	a0,a0
     704:	00000097          	auipc	ra,0x0
     708:	000080e7          	jalr	ra # 704 <.L53+0x38>
     70c:	00000517          	auipc	a0,0x0
     710:	00050513          	mv	a0,a0
     714:	00000097          	auipc	ra,0x0
     718:	000080e7          	jalr	ra # 714 <.L53+0x48>
     71c:	341027f3          	csrr	a5,mepc
     720:	fcf43823          	sd	a5,-48(s0)
     724:	fd043783          	ld	a5,-48(s0)
     728:	0007879b          	sext.w	a5,a5
     72c:	00078513          	mv	a0,a5
     730:	00000097          	auipc	ra,0x0
     734:	000080e7          	jalr	ra # 730 <.L53+0x64>
     738:	00000517          	auipc	a0,0x0
     73c:	00050513          	mv	a0,a0
     740:	00000097          	auipc	ra,0x0
     744:	000080e7          	jalr	ra # 740 <.L53+0x74>
     748:	00100793          	li	a5,1
     74c:	fef42623          	sw	a5,-20(s0)
     750:	0080006f          	j	758 <.L35>

0000000000000754 <.L55>:
     754:	00000013          	nop

0000000000000758 <.L35>:
     758:	fdc42703          	lw	a4,-36(s0)
     75c:	800007b7          	lui	a5,0x80000
     760:	fff7c793          	not	a5,a5
     764:	00f777b3          	and	a5,a4,a5
     768:	0007879b          	sext.w	a5,a5
     76c:	00100713          	li	a4,1
     770:	00f717bb          	sllw	a5,a4,a5
     774:	0007879b          	sext.w	a5,a5
     778:	3447b7f3          	csrrc	a5,mip,a5
     77c:	fcf43423          	sd	a5,-56(s0)
     780:	2ac0006f          	j	a2c <.L39>

0000000000000784 <.L30>:
     784:	fdc42783          	lw	a5,-36(s0)
     788:	0007871b          	sext.w	a4,a5
     78c:	00b00793          	li	a5,11
     790:	20e7ec63          	bltu	a5,a4,9a8 <.L40>
     794:	fdc46783          	lwu	a5,-36(s0)
     798:	00279713          	slli	a4,a5,0x2
     79c:	00000797          	auipc	a5,0x0
     7a0:	00078793          	mv	a5,a5
     7a4:	00f707b3          	add	a5,a4,a5
     7a8:	0007a783          	lw	a5,0(a5) # 79c <.L30+0x18>
     7ac:	0007871b          	sext.w	a4,a5
     7b0:	00000797          	auipc	a5,0x0
     7b4:	00078793          	mv	a5,a5
     7b8:	00f707b3          	add	a5,a4,a5
     7bc:	00078067          	jr	a5 # 7b0 <.L30+0x2c>

00000000000007c0 <.L46>:
     7c0:	00000517          	auipc	a0,0x0
     7c4:	00050513          	mv	a0,a0
     7c8:	00000097          	auipc	ra,0x0
     7cc:	000080e7          	jalr	ra # 7c8 <.L46+0x8>
     7d0:	343027f3          	csrr	a5,mtval
     7d4:	fcf43023          	sd	a5,-64(s0)
     7d8:	fc043783          	ld	a5,-64(s0)
     7dc:	0007879b          	sext.w	a5,a5
     7e0:	00078513          	mv	a0,a5
     7e4:	00000097          	auipc	ra,0x0
     7e8:	000080e7          	jalr	ra # 7e4 <.L46+0x24>
     7ec:	00000517          	auipc	a0,0x0
     7f0:	00050513          	mv	a0,a0
     7f4:	00000097          	auipc	ra,0x0
     7f8:	000080e7          	jalr	ra # 7f4 <.L46+0x34>
     7fc:	00100793          	li	a5,1
     800:	fef42623          	sw	a5,-20(s0)
     804:	2280006f          	j	a2c <.L39>

0000000000000808 <.L45>:
     808:	00000517          	auipc	a0,0x0
     80c:	00050513          	mv	a0,a0
     810:	00000097          	auipc	ra,0x0
     814:	000080e7          	jalr	ra # 810 <.L45+0x8>
     818:	00100793          	li	a5,1
     81c:	fef42623          	sw	a5,-20(s0)
     820:	20c0006f          	j	a2c <.L39>

0000000000000824 <.L44>:
     824:	00000517          	auipc	a0,0x0
     828:	00050513          	mv	a0,a0
     82c:	00000097          	auipc	ra,0x0
     830:	000080e7          	jalr	ra # 82c <.L44+0x8>
     834:	343027f3          	csrr	a5,mtval
     838:	faf43c23          	sd	a5,-72(s0)
     83c:	fb843783          	ld	a5,-72(s0)
     840:	0007879b          	sext.w	a5,a5
     844:	00078513          	mv	a0,a5
     848:	00000097          	auipc	ra,0x0
     84c:	000080e7          	jalr	ra # 848 <.L44+0x24>
     850:	00000517          	auipc	a0,0x0
     854:	00050513          	mv	a0,a0
     858:	00000097          	auipc	ra,0x0
     85c:	000080e7          	jalr	ra # 858 <.L44+0x34>
     860:	1cc0006f          	j	a2c <.L39>

0000000000000864 <.L43>:
     864:	00000517          	auipc	a0,0x0
     868:	00050513          	mv	a0,a0
     86c:	00000097          	auipc	ra,0x0
     870:	000080e7          	jalr	ra # 86c <.L43+0x8>
     874:	343027f3          	csrr	a5,mtval
     878:	faf43823          	sd	a5,-80(s0)
     87c:	fb043783          	ld	a5,-80(s0)
     880:	0007879b          	sext.w	a5,a5
     884:	00078513          	mv	a0,a5
     888:	00000097          	auipc	ra,0x0
     88c:	000080e7          	jalr	ra # 888 <.L43+0x24>
     890:	00000517          	auipc	a0,0x0
     894:	00050513          	mv	a0,a0
     898:	00000097          	auipc	ra,0x0
     89c:	000080e7          	jalr	ra # 898 <.L43+0x34>
     8a0:	00100793          	li	a5,1
     8a4:	fef42623          	sw	a5,-20(s0)
     8a8:	1840006f          	j	a2c <.L39>

00000000000008ac <.L41>:
     8ac:	00000797          	auipc	a5,0x0
     8b0:	00078793          	mv	a5,a5
     8b4:	0007b783          	ld	a5,0(a5) # 8ac <.L41>
     8b8:	02878793          	addi	a5,a5,40
     8bc:	0007a783          	lw	a5,0(a5)
     8c0:	00078693          	mv	a3,a5
     8c4:	00100713          	li	a4,1
     8c8:	02e68463          	beq	a3,a4,8f0 <.L47>
     8cc:	00078713          	mv	a4,a5
     8d0:	00070a63          	beqz	a4,8e4 <.L48>
     8d4:	00078713          	mv	a4,a5
     8d8:	00200793          	li	a5,2
     8dc:	04f70063          	beq	a4,a5,91c <.L49>
     8e0:	0680006f          	j	948 <.L54>

00000000000008e4 <.L48>:
     8e4:	00100793          	li	a5,1
     8e8:	fef42623          	sw	a5,-20(s0)
     8ec:	0a40006f          	j	990 <.L51>

00000000000008f0 <.L47>:
     8f0:	00000797          	auipc	a5,0x0
     8f4:	00078793          	mv	a5,a5
     8f8:	0007b783          	ld	a5,0(a5) # 8f0 <.L47>
     8fc:	02c78793          	addi	a5,a5,44
     900:	0007a703          	lw	a4,0(a5)
     904:	060417b7          	lui	a5,0x6041
     908:	00579793          	slli	a5,a5,0x5
     90c:	ff878793          	addi	a5,a5,-8 # 6040ff8 <.L195+0x603ee78>
     910:	0ff77713          	andi	a4,a4,255
     914:	00e78023          	sb	a4,0(a5)
     918:	0780006f          	j	990 <.L51>

000000000000091c <.L49>:
     91c:	060417b7          	lui	a5,0x6041
     920:	00579793          	slli	a5,a5,0x5
     924:	ff878793          	addi	a5,a5,-8 # 6040ff8 <.L195+0x603ee78>
     928:	0007c703          	lbu	a4,0(a5)
     92c:	00000797          	auipc	a5,0x0
     930:	00078793          	mv	a5,a5
     934:	0007b783          	ld	a5,0(a5) # 92c <.L49+0x10>
     938:	02478793          	addi	a5,a5,36
     93c:	0007071b          	sext.w	a4,a4
     940:	00e7a023          	sw	a4,0(a5)
     944:	04c0006f          	j	990 <.L51>

0000000000000948 <.L54>:
     948:	00000517          	auipc	a0,0x0
     94c:	00050513          	mv	a0,a0
     950:	00000097          	auipc	ra,0x0
     954:	000080e7          	jalr	ra # 950 <.L54+0x8>
     958:	00000797          	auipc	a5,0x0
     95c:	00078793          	mv	a5,a5
     960:	0007b783          	ld	a5,0(a5) # 958 <.L54+0x10>
     964:	02878793          	addi	a5,a5,40
     968:	0007a783          	lw	a5,0(a5)
     96c:	00078513          	mv	a0,a5
     970:	00000097          	auipc	ra,0x0
     974:	000080e7          	jalr	ra # 970 <.L54+0x28>
     978:	00000517          	auipc	a0,0x0
     97c:	00050513          	mv	a0,a0
     980:	00000097          	auipc	ra,0x0
     984:	000080e7          	jalr	ra # 980 <.L54+0x38>
     988:	00100793          	li	a5,1
     98c:	fef42623          	sw	a5,-20(s0)

0000000000000990 <.L51>:
     990:	341027f3          	csrr	a5,mepc
     994:	faf43423          	sd	a5,-88(s0)
     998:	fa843783          	ld	a5,-88(s0)
     99c:	00478793          	addi	a5,a5,4
     9a0:	34179073          	csrw	mepc,a5
     9a4:	0880006f          	j	a2c <.L39>

00000000000009a8 <.L40>:
     9a8:	00000517          	auipc	a0,0x0
     9ac:	00050513          	mv	a0,a0
     9b0:	00000097          	auipc	ra,0x0
     9b4:	000080e7          	jalr	ra # 9b0 <.L40+0x8>
     9b8:	00000517          	auipc	a0,0x0
     9bc:	00050513          	mv	a0,a0
     9c0:	00000097          	auipc	ra,0x0
     9c4:	000080e7          	jalr	ra # 9c0 <.L40+0x18>
     9c8:	fdc42783          	lw	a5,-36(s0)
     9cc:	00078513          	mv	a0,a5
     9d0:	00000097          	auipc	ra,0x0
     9d4:	000080e7          	jalr	ra # 9d0 <.L40+0x28>
     9d8:	00000517          	auipc	a0,0x0
     9dc:	00050513          	mv	a0,a0
     9e0:	00000097          	auipc	ra,0x0
     9e4:	000080e7          	jalr	ra # 9e0 <.L40+0x38>
     9e8:	00000517          	auipc	a0,0x0
     9ec:	00050513          	mv	a0,a0
     9f0:	00000097          	auipc	ra,0x0
     9f4:	000080e7          	jalr	ra # 9f0 <.L40+0x48>
     9f8:	341027f3          	csrr	a5,mepc
     9fc:	faf43023          	sd	a5,-96(s0)
     a00:	fa043783          	ld	a5,-96(s0)
     a04:	0007879b          	sext.w	a5,a5
     a08:	00078513          	mv	a0,a5
     a0c:	00000097          	auipc	ra,0x0
     a10:	000080e7          	jalr	ra # a0c <.L40+0x64>
     a14:	00000517          	auipc	a0,0x0
     a18:	00050513          	mv	a0,a0
     a1c:	00000097          	auipc	ra,0x0
     a20:	000080e7          	jalr	ra # a1c <.L40+0x74>
     a24:	00100793          	li	a5,1
     a28:	fef42623          	sw	a5,-20(s0)

0000000000000a2c <.L39>:
     a2c:	fec42783          	lw	a5,-20(s0)
     a30:	0007879b          	sext.w	a5,a5
     a34:	02078063          	beqz	a5,a54 <.L56>
     a38:	00000797          	auipc	a5,0x0
     a3c:	00078793          	mv	a5,a5
     a40:	0007a783          	lw	a5,0(a5) # a38 <.L39+0xc>
     a44:	00078863          	beqz	a5,a54 <.L56>
     a48:	00000797          	auipc	a5,0x0
     a4c:	00078793          	mv	a5,a5
     a50:	34179073          	csrw	mepc,a5

0000000000000a54 <.L56>:
     a54:	00000013          	nop
     a58:	05813083          	ld	ra,88(sp)
     a5c:	05013403          	ld	s0,80(sp)
     a60:	06010113          	addi	sp,sp,96
     a64:	00008067          	ret

0000000000000a68 <init>:
     a68:	fd010113          	addi	sp,sp,-48
     a6c:	02813423          	sd	s0,40(sp)
     a70:	03010413          	addi	s0,sp,48
     a74:	00000797          	auipc	a5,0x0
     a78:	00078793          	mv	a5,a5
     a7c:	0007a023          	sw	zero,0(a5) # a74 <init+0xc>
     a80:	00000797          	auipc	a5,0x0
     a84:	00078793          	mv	a5,a5
     a88:	0007a703          	lw	a4,0(a5) # a80 <init+0x18>
     a8c:	00000797          	auipc	a5,0x0
     a90:	00078793          	mv	a5,a5
     a94:	00e7a023          	sw	a4,0(a5) # a8c <init+0x24>
     a98:	c00607b7          	lui	a5,0xc0060
     a9c:	34079073          	csrw	mscratch,a5
     aa0:	00000797          	auipc	a5,0x0
     aa4:	00078793          	mv	a5,a5
     aa8:	30579073          	csrw	mtvec,a5
     aac:	300467f3          	csrrsi	a5,mstatus,8
     ab0:	fef43023          	sd	a5,-32(s0)
     ab4:	060417b7          	lui	a5,0x6041
     ab8:	00579793          	slli	a5,a5,0x5
     abc:	fc478793          	addi	a5,a5,-60 # 6040fc4 <.L195+0x603ee44>
     ac0:	0007a023          	sw	zero,0(a5)
     ac4:	060417b7          	lui	a5,0x6041
     ac8:	00579793          	slli	a5,a5,0x5
     acc:	fc078793          	addi	a5,a5,-64 # 6040fc0 <.L195+0x603ee40>
     ad0:	0001f737          	lui	a4,0x1f
     ad4:	8487071b          	addiw	a4,a4,-1976
     ad8:	00e7a023          	sw	a4,0(a5)
     adc:	060417b7          	lui	a5,0x6041
     ae0:	00579793          	slli	a5,a5,0x5
     ae4:	fcc78793          	addi	a5,a5,-52 # 6040fcc <.L195+0x603ee4c>
     ae8:	0007a023          	sw	zero,0(a5)
     aec:	060417b7          	lui	a5,0x6041
     af0:	00579793          	slli	a5,a5,0x5
     af4:	fc878793          	addi	a5,a5,-56 # 6040fc8 <.L195+0x603ee48>
     af8:	0007a023          	sw	zero,0(a5)
     afc:	000017b7          	lui	a5,0x1
     b00:	8807879b          	addiw	a5,a5,-1920
     b04:	3047a7f3          	csrrs	a5,mie,a5
     b08:	fcf43c23          	sd	a5,-40(s0)
     b0c:	00000797          	auipc	a5,0x0
     b10:	00078793          	mv	a5,a5
     b14:	0007a023          	sw	zero,0(a5) # b0c <init+0xa4>
     b18:	00000797          	auipc	a5,0x0
     b1c:	00078793          	mv	a5,a5
     b20:	06400713          	li	a4,100
     b24:	00e7a023          	sw	a4,0(a5) # b18 <init+0xb0>
     b28:	fe042623          	sw	zero,-20(s0)
     b2c:	0280006f          	j	b54 <.L58>

0000000000000b30 <.L59>:
     b30:	00000717          	auipc	a4,0x0
     b34:	00070713          	mv	a4,a4
     b38:	fec42783          	lw	a5,-20(s0)
     b3c:	00279793          	slli	a5,a5,0x2
     b40:	00f707b3          	add	a5,a4,a5
     b44:	0007a023          	sw	zero,0(a5)
     b48:	fec42783          	lw	a5,-20(s0)
     b4c:	0017879b          	addiw	a5,a5,1
     b50:	fef42623          	sw	a5,-20(s0)

0000000000000b54 <.L58>:
     b54:	fec42783          	lw	a5,-20(s0)
     b58:	0007871b          	sext.w	a4,a5
     b5c:	01f00793          	li	a5,31
     b60:	fce7d8e3          	bge	a5,a4,b30 <.L59>
     b64:	00000013          	nop
     b68:	02813403          	ld	s0,40(sp)
     b6c:	03010113          	addi	sp,sp,48
     b70:	00008067          	ret

0000000000000b74 <next_word>:
     b74:	fe010113          	addi	sp,sp,-32
     b78:	00813c23          	sd	s0,24(sp)
     b7c:	02010413          	addi	s0,sp,32
     b80:	fea43423          	sd	a0,-24(s0)
     b84:	0100006f          	j	b94 <.L61>

0000000000000b88 <.L63>:
     b88:	fe843783          	ld	a5,-24(s0)
     b8c:	00178793          	addi	a5,a5,1
     b90:	fef43423          	sd	a5,-24(s0)

0000000000000b94 <.L61>:
     b94:	fe843783          	ld	a5,-24(s0)
     b98:	0007c783          	lbu	a5,0(a5)
     b9c:	02078463          	beqz	a5,bc4 <.L64>
     ba0:	fe843783          	ld	a5,-24(s0)
     ba4:	0007c783          	lbu	a5,0(a5)
     ba8:	00078713          	mv	a4,a5
     bac:	02000793          	li	a5,32
     bb0:	fcf71ce3          	bne	a4,a5,b88 <.L63>
     bb4:	0100006f          	j	bc4 <.L64>

0000000000000bb8 <.L66>:
     bb8:	fe843783          	ld	a5,-24(s0)
     bbc:	00178793          	addi	a5,a5,1
     bc0:	fef43423          	sd	a5,-24(s0)

0000000000000bc4 <.L64>:
     bc4:	fe843783          	ld	a5,-24(s0)
     bc8:	0007c783          	lbu	a5,0(a5)
     bcc:	00078c63          	beqz	a5,be4 <.L65>
     bd0:	fe843783          	ld	a5,-24(s0)
     bd4:	0007c783          	lbu	a5,0(a5)
     bd8:	00078713          	mv	a4,a5
     bdc:	02000793          	li	a5,32
     be0:	fcf70ce3          	beq	a4,a5,bb8 <.L66>

0000000000000be4 <.L65>:
     be4:	fe843783          	ld	a5,-24(s0)
     be8:	00078513          	mv	a0,a5
     bec:	01813403          	ld	s0,24(sp)
     bf0:	02010113          	addi	sp,sp,32
     bf4:	00008067          	ret

0000000000000bf8 <jump_exe>:
     bf8:	fe010113          	addi	sp,sp,-32
     bfc:	00113c23          	sd	ra,24(sp)
     c00:	00813823          	sd	s0,16(sp)
     c04:	02010413          	addi	s0,sp,32
     c08:	00000517          	auipc	a0,0x0
     c0c:	00050513          	mv	a0,a0
     c10:	00000097          	auipc	ra,0x0
     c14:	000080e7          	jalr	ra # c10 <jump_exe+0x18>
     c18:	fea43423          	sd	a0,-24(s0)
     c1c:	fe843783          	ld	a5,-24(s0)
     c20:	0007c783          	lbu	a5,0(a5)
     c24:	0c078c63          	beqz	a5,cfc <.L73>
     c28:	fe843783          	ld	a5,-24(s0)
     c2c:	00178793          	addi	a5,a5,1
     c30:	0007c783          	lbu	a5,0(a5)
     c34:	0c078463          	beqz	a5,cfc <.L73>
     c38:	fe843503          	ld	a0,-24(s0)
     c3c:	00000097          	auipc	ra,0x0
     c40:	000080e7          	jalr	ra # c3c <jump_exe+0x44>
     c44:	00050793          	mv	a5,a0
     c48:	fef42223          	sw	a5,-28(s0)
     c4c:	fe442783          	lw	a5,-28(s0)
     c50:	00078513          	mv	a0,a5
     c54:	00000097          	auipc	ra,0x0
     c58:	000080e7          	jalr	ra # c54 <jump_exe+0x5c>
     c5c:	00000797          	auipc	a5,0x0
     c60:	00078793          	mv	a5,a5
     c64:	0007a703          	lw	a4,0(a5) # c5c <jump_exe+0x64>
     c68:	00000797          	auipc	a5,0x0
     c6c:	00078793          	mv	a5,a5
     c70:	0007a783          	lw	a5,0(a5) # c68 <jump_exe+0x70>
     c74:	00e7ea63          	bltu	a5,a4,c88 <.L72>
     c78:	00000517          	auipc	a0,0x0
     c7c:	00050513          	mv	a0,a0
     c80:	00000097          	auipc	ra,0x0
     c84:	000080e7          	jalr	ra # c80 <jump_exe+0x88>

0000000000000c88 <.L72>:
     c88:	00000517          	auipc	a0,0x0
     c8c:	00050513          	mv	a0,a0
     c90:	00000097          	auipc	ra,0x0
     c94:	000080e7          	jalr	ra # c90 <.L72+0x8>
     c98:	00000797          	auipc	a5,0x0
     c9c:	00078793          	mv	a5,a5
     ca0:	0007a783          	lw	a5,0(a5) # c98 <.L72+0x10>
     ca4:	00078513          	mv	a0,a5
     ca8:	00000097          	auipc	ra,0x0
     cac:	000080e7          	jalr	ra # ca8 <.L72+0x20>
     cb0:	00000517          	auipc	a0,0x0
     cb4:	00050513          	mv	a0,a0
     cb8:	00000097          	auipc	ra,0x0
     cbc:	000080e7          	jalr	ra # cb8 <.L72+0x30>
     cc0:	00000517          	auipc	a0,0x0
     cc4:	00050513          	mv	a0,a0
     cc8:	00000097          	auipc	ra,0x0
     ccc:	000080e7          	jalr	ra # cc8 <.L72+0x40>
     cd0:	00000797          	auipc	a5,0x0
     cd4:	00078793          	mv	a5,a5
     cd8:	0007a783          	lw	a5,0(a5) # cd0 <.L72+0x48>
     cdc:	00078513          	mv	a0,a5
     ce0:	00000097          	auipc	ra,0x0
     ce4:	000080e7          	jalr	ra # ce0 <.L72+0x58>
     ce8:	00000517          	auipc	a0,0x0
     cec:	00050513          	mv	a0,a0
     cf0:	00000097          	auipc	ra,0x0
     cf4:	000080e7          	jalr	ra # cf0 <.L72+0x68>
     cf8:	0080006f          	j	d00 <.L68>

0000000000000cfc <.L73>:
     cfc:	00000013          	nop

0000000000000d00 <.L68>:
     d00:	01813083          	ld	ra,24(sp)
     d04:	01013403          	ld	s0,16(sp)
     d08:	02010113          	addi	sp,sp,32
     d0c:	00008067          	ret

0000000000000d10 <reg_exe>:
     d10:	fe010113          	addi	sp,sp,-32
     d14:	00113c23          	sd	ra,24(sp)
     d18:	00813823          	sd	s0,16(sp)
     d1c:	02010413          	addi	s0,sp,32
     d20:	fe042623          	sw	zero,-20(s0)
     d24:	0740006f          	j	d98 <.L75>

0000000000000d28 <.L76>:
     d28:	00000517          	auipc	a0,0x0
     d2c:	00050513          	mv	a0,a0
     d30:	00000097          	auipc	ra,0x0
     d34:	000080e7          	jalr	ra # d30 <.L76+0x8>
     d38:	fec42783          	lw	a5,-20(s0)
     d3c:	00078513          	mv	a0,a5
     d40:	00000097          	auipc	ra,0x0
     d44:	000080e7          	jalr	ra # d40 <.L76+0x18>
     d48:	00000517          	auipc	a0,0x0
     d4c:	00050513          	mv	a0,a0
     d50:	00000097          	auipc	ra,0x0
     d54:	000080e7          	jalr	ra # d50 <.L76+0x28>
     d58:	00000717          	auipc	a4,0x0
     d5c:	00070713          	mv	a4,a4
     d60:	fec42783          	lw	a5,-20(s0)
     d64:	00279793          	slli	a5,a5,0x2
     d68:	00f707b3          	add	a5,a4,a5
     d6c:	0007a783          	lw	a5,0(a5)
     d70:	00078513          	mv	a0,a5
     d74:	00000097          	auipc	ra,0x0
     d78:	000080e7          	jalr	ra # d74 <.L76+0x4c>
     d7c:	00000517          	auipc	a0,0x0
     d80:	00050513          	mv	a0,a0
     d84:	00000097          	auipc	ra,0x0
     d88:	000080e7          	jalr	ra # d84 <.L76+0x5c>
     d8c:	fec42783          	lw	a5,-20(s0)
     d90:	0017879b          	addiw	a5,a5,1
     d94:	fef42623          	sw	a5,-20(s0)

0000000000000d98 <.L75>:
     d98:	fec42783          	lw	a5,-20(s0)
     d9c:	0007871b          	sext.w	a4,a5
     da0:	01f00793          	li	a5,31
     da4:	f8e7d2e3          	bge	a5,a4,d28 <.L76>
     da8:	00000013          	nop
     dac:	01813083          	ld	ra,24(sp)
     db0:	01013403          	ld	s0,16(sp)
     db4:	02010113          	addi	sp,sp,32
     db8:	00008067          	ret

0000000000000dbc <edit_exe>:
     dbc:	fd010113          	addi	sp,sp,-48
     dc0:	02113423          	sd	ra,40(sp)
     dc4:	02813023          	sd	s0,32(sp)
     dc8:	03010413          	addi	s0,sp,48
     dcc:	00000517          	auipc	a0,0x0
     dd0:	00050513          	mv	a0,a0
     dd4:	00000097          	auipc	ra,0x0
     dd8:	000080e7          	jalr	ra # dd4 <edit_exe+0x18>
     ddc:	fea43023          	sd	a0,-32(s0)
     de0:	fe043783          	ld	a5,-32(s0)
     de4:	0007c783          	lbu	a5,0(a5)
     de8:	0a078c63          	beqz	a5,ea0 <.L82>
     dec:	fe043783          	ld	a5,-32(s0)
     df0:	00178793          	addi	a5,a5,1
     df4:	0007c783          	lbu	a5,0(a5)
     df8:	0a078463          	beqz	a5,ea0 <.L82>
     dfc:	fe043503          	ld	a0,-32(s0)
     e00:	00000097          	auipc	ra,0x0
     e04:	000080e7          	jalr	ra # e00 <edit_exe+0x44>
     e08:	00050793          	mv	a5,a0
     e0c:	fef42623          	sw	a5,-20(s0)

0000000000000e10 <.L81>:
     e10:	00000517          	auipc	a0,0x0
     e14:	00050513          	mv	a0,a0
     e18:	00000097          	auipc	ra,0x0
     e1c:	000080e7          	jalr	ra # e18 <.L81+0x8>
     e20:	fec42783          	lw	a5,-20(s0)
     e24:	00078513          	mv	a0,a5
     e28:	00000097          	auipc	ra,0x0
     e2c:	000080e7          	jalr	ra # e28 <.L81+0x18>
     e30:	00000517          	auipc	a0,0x0
     e34:	00050513          	mv	a0,a0
     e38:	00000097          	auipc	ra,0x0
     e3c:	000080e7          	jalr	ra # e38 <.L81+0x28>
     e40:	00000097          	auipc	ra,0x0
     e44:	000080e7          	jalr	ra # e40 <.L81+0x30>
     e48:	00000797          	auipc	a5,0x0
     e4c:	00078793          	mv	a5,a5
     e50:	0007c783          	lbu	a5,0(a5) # e48 <.L81+0x38>
     e54:	04078863          	beqz	a5,ea4 <.L77>
     e58:	00000797          	auipc	a5,0x0
     e5c:	00078793          	mv	a5,a5
     e60:	0017c783          	lbu	a5,1(a5) # e59 <.L81+0x49>
     e64:	04078063          	beqz	a5,ea4 <.L77>
     e68:	00000517          	auipc	a0,0x0
     e6c:	00050513          	mv	a0,a0
     e70:	00000097          	auipc	ra,0x0
     e74:	000080e7          	jalr	ra # e70 <.L81+0x60>
     e78:	00050793          	mv	a5,a0
     e7c:	fcf42e23          	sw	a5,-36(s0)
     e80:	fec46783          	lwu	a5,-20(s0)
     e84:	00078713          	mv	a4,a5
     e88:	fdc42783          	lw	a5,-36(s0)
     e8c:	00f72023          	sw	a5,0(a4) # d58 <.L76+0x30>
     e90:	fec42783          	lw	a5,-20(s0)
     e94:	0047879b          	addiw	a5,a5,4
     e98:	fef42623          	sw	a5,-20(s0)
     e9c:	f75ff06f          	j	e10 <.L81>

0000000000000ea0 <.L82>:
     ea0:	00000013          	nop

0000000000000ea4 <.L77>:
     ea4:	02813083          	ld	ra,40(sp)
     ea8:	02013403          	ld	s0,32(sp)
     eac:	03010113          	addi	sp,sp,48
     eb0:	00008067          	ret

0000000000000eb4 <parse_arg>:
     eb4:	fe010113          	addi	sp,sp,-32
     eb8:	00113c23          	sd	ra,24(sp)
     ebc:	00813823          	sd	s0,16(sp)
     ec0:	02010413          	addi	s0,sp,32
     ec4:	fea43423          	sd	a0,-24(s0)
     ec8:	feb43023          	sd	a1,-32(s0)
     ecc:	fe843783          	ld	a5,-24(s0)
     ed0:	0007c783          	lbu	a5,0(a5)
     ed4:	00078a63          	beqz	a5,ee8 <.L84>
     ed8:	fe843783          	ld	a5,-24(s0)
     edc:	00178793          	addi	a5,a5,1
     ee0:	0007c783          	lbu	a5,0(a5)
     ee4:	00079663          	bnez	a5,ef0 <.L85>

0000000000000ee8 <.L84>:
     ee8:	00000793          	li	a5,0
     eec:	0bc0006f          	j	fa8 <.L86>

0000000000000ef0 <.L85>:
     ef0:	fe843783          	ld	a5,-24(s0)
     ef4:	0007c783          	lbu	a5,0(a5)
     ef8:	00078713          	mv	a4,a5
     efc:	03000793          	li	a5,48
     f00:	02f71e63          	bne	a4,a5,f3c <.L87>
     f04:	fe843783          	ld	a5,-24(s0)
     f08:	00178793          	addi	a5,a5,1
     f0c:	0007c783          	lbu	a5,0(a5)
     f10:	00078713          	mv	a4,a5
     f14:	07800793          	li	a5,120
     f18:	02f71263          	bne	a4,a5,f3c <.L87>
     f1c:	fe843503          	ld	a0,-24(s0)
     f20:	00000097          	auipc	ra,0x0
     f24:	000080e7          	jalr	ra # f20 <.L85+0x30>
     f28:	00050793          	mv	a5,a0
     f2c:	0007871b          	sext.w	a4,a5
     f30:	fe043783          	ld	a5,-32(s0)
     f34:	00e7a023          	sw	a4,0(a5)
     f38:	06c0006f          	j	fa4 <.L88>

0000000000000f3c <.L87>:
     f3c:	fe843783          	ld	a5,-24(s0)
     f40:	0007c783          	lbu	a5,0(a5)
     f44:	00078713          	mv	a4,a5
     f48:	07800793          	li	a5,120
     f4c:	04f71c63          	bne	a4,a5,fa4 <.L88>
     f50:	fe843783          	ld	a5,-24(s0)
     f54:	00178793          	addi	a5,a5,1
     f58:	0007c783          	lbu	a5,0(a5)
     f5c:	00078713          	mv	a4,a5
     f60:	03000793          	li	a5,48
     f64:	04f71063          	bne	a4,a5,fa4 <.L88>
     f68:	fe843783          	ld	a5,-24(s0)
     f6c:	00278793          	addi	a5,a5,2
     f70:	0007c783          	lbu	a5,0(a5)
     f74:	00078713          	mv	a4,a5
     f78:	07800793          	li	a5,120
     f7c:	02f71463          	bne	a4,a5,fa4 <.L88>
     f80:	fe843783          	ld	a5,-24(s0)
     f84:	00178793          	addi	a5,a5,1
     f88:	00078513          	mv	a0,a5
     f8c:	00000097          	auipc	ra,0x0
     f90:	000080e7          	jalr	ra # f8c <.L87+0x50>
     f94:	00050793          	mv	a5,a0
     f98:	0007871b          	sext.w	a4,a5
     f9c:	fe043783          	ld	a5,-32(s0)
     fa0:	00e7a023          	sw	a4,0(a5)

0000000000000fa4 <.L88>:
     fa4:	00100793          	li	a5,1

0000000000000fa8 <.L86>:
     fa8:	00078513          	mv	a0,a5
     fac:	01813083          	ld	ra,24(sp)
     fb0:	01013403          	ld	s0,16(sp)
     fb4:	02010113          	addi	sp,sp,32
     fb8:	00008067          	ret

0000000000000fbc <inst2int>:
     fbc:	fc010113          	addi	sp,sp,-64
     fc0:	02113c23          	sd	ra,56(sp)
     fc4:	02813823          	sd	s0,48(sp)
     fc8:	04010413          	addi	s0,sp,64
     fcc:	fca43423          	sd	a0,-56(s0)
     fd0:	fe042623          	sw	zero,-20(s0)
     fd4:	1000006f          	j	10d4 <.L90>

0000000000000fd8 <.L96>:
     fd8:	fe042423          	sw	zero,-24(s0)
     fdc:	0100006f          	j	fec <.L91>

0000000000000fe0 <.L93>:
     fe0:	fe842783          	lw	a5,-24(s0)
     fe4:	0017879b          	addiw	a5,a5,1
     fe8:	fef42423          	sw	a5,-24(s0)

0000000000000fec <.L91>:
     fec:	00000617          	auipc	a2,0x0
     ff0:	00060613          	mv	a2,a2
     ff4:	fe842683          	lw	a3,-24(s0)
     ff8:	fec42703          	lw	a4,-20(s0)
     ffc:	00070793          	mv	a5,a4
    1000:	00379793          	slli	a5,a5,0x3
    1004:	40e787b3          	sub	a5,a5,a4
    1008:	00f607b3          	add	a5,a2,a5
    100c:	00d787b3          	add	a5,a5,a3
    1010:	0007c783          	lbu	a5,0(a5)
    1014:	04078c63          	beqz	a5,106c <.L92>
    1018:	fe842783          	lw	a5,-24(s0)
    101c:	fc843703          	ld	a4,-56(s0)
    1020:	00f707b3          	add	a5,a4,a5
    1024:	0007c783          	lbu	a5,0(a5)
    1028:	04078263          	beqz	a5,106c <.L92>
    102c:	00000617          	auipc	a2,0x0
    1030:	00060613          	mv	a2,a2
    1034:	fe842683          	lw	a3,-24(s0)
    1038:	fec42703          	lw	a4,-20(s0)
    103c:	00070793          	mv	a5,a4
    1040:	00379793          	slli	a5,a5,0x3
    1044:	40e787b3          	sub	a5,a5,a4
    1048:	00f607b3          	add	a5,a2,a5
    104c:	00d787b3          	add	a5,a5,a3
    1050:	0007c683          	lbu	a3,0(a5)
    1054:	fe842783          	lw	a5,-24(s0)
    1058:	fc843703          	ld	a4,-56(s0)
    105c:	00f707b3          	add	a5,a4,a5
    1060:	0007c783          	lbu	a5,0(a5)
    1064:	00068713          	mv	a4,a3
    1068:	f6f70ce3          	beq	a4,a5,fe0 <.L93>

000000000000106c <.L92>:
    106c:	00000617          	auipc	a2,0x0
    1070:	00060613          	mv	a2,a2
    1074:	fe842683          	lw	a3,-24(s0)
    1078:	fec42703          	lw	a4,-20(s0)
    107c:	00070793          	mv	a5,a4
    1080:	00379793          	slli	a5,a5,0x3
    1084:	40e787b3          	sub	a5,a5,a4
    1088:	00f607b3          	add	a5,a2,a5
    108c:	00d787b3          	add	a5,a5,a3
    1090:	0007c783          	lbu	a5,0(a5)
    1094:	02079a63          	bnez	a5,10c8 <.L94>
    1098:	fe842783          	lw	a5,-24(s0)
    109c:	fc843703          	ld	a4,-56(s0)
    10a0:	00f707b3          	add	a5,a4,a5
    10a4:	0007c783          	lbu	a5,0(a5)
    10a8:	02078e63          	beqz	a5,10e4 <.L95>
    10ac:	fe842783          	lw	a5,-24(s0)
    10b0:	fc843703          	ld	a4,-56(s0)
    10b4:	00f707b3          	add	a5,a4,a5
    10b8:	0007c783          	lbu	a5,0(a5)
    10bc:	00078713          	mv	a4,a5
    10c0:	02000793          	li	a5,32
    10c4:	02f70063          	beq	a4,a5,10e4 <.L95>

00000000000010c8 <.L94>:
    10c8:	fec42783          	lw	a5,-20(s0)
    10cc:	0017879b          	addiw	a5,a5,1
    10d0:	fef42623          	sw	a5,-20(s0)

00000000000010d4 <.L90>:
    10d4:	fec42783          	lw	a5,-20(s0)
    10d8:	0007871b          	sext.w	a4,a5
    10dc:	02700793          	li	a5,39
    10e0:	eee7dce3          	bge	a5,a4,fd8 <.L96>

00000000000010e4 <.L95>:
    10e4:	fec42783          	lw	a5,-20(s0)
    10e8:	0007871b          	sext.w	a4,a5
    10ec:	02800793          	li	a5,40
    10f0:	00f71663          	bne	a4,a5,10fc <.L97>
    10f4:	00000793          	li	a5,0
    10f8:	58c0006f          	j	1684 <.L120>

00000000000010fc <.L97>:
    10fc:	00000717          	auipc	a4,0x0
    1100:	00070713          	mv	a4,a4
    1104:	fec42783          	lw	a5,-20(s0)
    1108:	00479793          	slli	a5,a5,0x4
    110c:	00f707b3          	add	a5,a4,a5
    1110:	0047a783          	lw	a5,4(a5)
    1114:	fef42223          	sw	a5,-28(s0)
    1118:	00000717          	auipc	a4,0x0
    111c:	00070713          	mv	a4,a4
    1120:	fec42783          	lw	a5,-20(s0)
    1124:	00479793          	slli	a5,a5,0x4
    1128:	00f707b3          	add	a5,a4,a5
    112c:	0007a783          	lw	a5,0(a5)
    1130:	fef42023          	sw	a5,-32(s0)
    1134:	fe042783          	lw	a5,-32(s0)
    1138:	0007871b          	sext.w	a4,a5
    113c:	00600793          	li	a5,6
    1140:	02f71863          	bne	a4,a5,1170 <.L99>
    1144:	00000717          	auipc	a4,0x0
    1148:	00070713          	mv	a4,a4
    114c:	fec42783          	lw	a5,-20(s0)
    1150:	00479793          	slli	a5,a5,0x4
    1154:	00f707b3          	add	a5,a4,a5
    1158:	0087a783          	lw	a5,8(a5)
    115c:	0077979b          	slliw	a5,a5,0x7
    1160:	0007871b          	sext.w	a4,a5
    1164:	fe442783          	lw	a5,-28(s0)
    1168:	00e7e7b3          	or	a5,a5,a4
    116c:	fef42223          	sw	a5,-28(s0)

0000000000001170 <.L99>:
    1170:	fe042783          	lw	a5,-32(s0)
    1174:	0007879b          	sext.w	a5,a5
    1178:	02078a63          	beqz	a5,11ac <.L100>
    117c:	fe042783          	lw	a5,-32(s0)
    1180:	0007871b          	sext.w	a4,a5
    1184:	00100793          	li	a5,1
    1188:	02f70263          	beq	a4,a5,11ac <.L100>
    118c:	fe042783          	lw	a5,-32(s0)
    1190:	0007871b          	sext.w	a4,a5
    1194:	00200793          	li	a5,2
    1198:	00f70a63          	beq	a4,a5,11ac <.L100>
    119c:	fe042783          	lw	a5,-32(s0)
    11a0:	0007871b          	sext.w	a4,a5
    11a4:	00300793          	li	a5,3
    11a8:	04f71063          	bne	a4,a5,11e8 <.L101>

00000000000011ac <.L100>:
    11ac:	00000717          	auipc	a4,0x0
    11b0:	00070713          	mv	a4,a4
    11b4:	fec42783          	lw	a5,-20(s0)
    11b8:	00479793          	slli	a5,a5,0x4
    11bc:	00f707b3          	add	a5,a4,a5
    11c0:	0087a783          	lw	a5,8(a5)
    11c4:	00c7979b          	slliw	a5,a5,0xc
    11c8:	0007879b          	sext.w	a5,a5
    11cc:	00078713          	mv	a4,a5
    11d0:	000077b7          	lui	a5,0x7
    11d4:	00f777b3          	and	a5,a4,a5
    11d8:	0007871b          	sext.w	a4,a5
    11dc:	fe442783          	lw	a5,-28(s0)
    11e0:	00e7e7b3          	or	a5,a5,a4
    11e4:	fef42223          	sw	a5,-28(s0)

00000000000011e8 <.L101>:
    11e8:	fe042783          	lw	a5,-32(s0)
    11ec:	0007879b          	sext.w	a5,a5
    11f0:	02079863          	bnez	a5,1220 <.L102>
    11f4:	00000717          	auipc	a4,0x0
    11f8:	00070713          	mv	a4,a4
    11fc:	fec42783          	lw	a5,-20(s0)
    1200:	00479793          	slli	a5,a5,0x4
    1204:	00f707b3          	add	a5,a4,a5
    1208:	00c7a783          	lw	a5,12(a5) # 700c <.L195+0x4e8c>
    120c:	0197979b          	slliw	a5,a5,0x19
    1210:	0007871b          	sext.w	a4,a5
    1214:	fe442783          	lw	a5,-28(s0)
    1218:	00e7e7b3          	or	a5,a5,a4
    121c:	fef42223          	sw	a5,-28(s0)

0000000000001220 <.L102>:
    1220:	fe042783          	lw	a5,-32(s0)
    1224:	0007879b          	sext.w	a5,a5
    1228:	02078a63          	beqz	a5,125c <.L103>
    122c:	fe042783          	lw	a5,-32(s0)
    1230:	0007871b          	sext.w	a4,a5
    1234:	00100793          	li	a5,1
    1238:	02f70263          	beq	a4,a5,125c <.L103>
    123c:	fe042783          	lw	a5,-32(s0)
    1240:	0007871b          	sext.w	a4,a5
    1244:	00400793          	li	a5,4
    1248:	00f70a63          	beq	a4,a5,125c <.L103>
    124c:	fe042783          	lw	a5,-32(s0)
    1250:	0007871b          	sext.w	a4,a5
    1254:	00500793          	li	a5,5
    1258:	06f71863          	bne	a4,a5,12c8 <.L104>

000000000000125c <.L103>:
    125c:	fc843503          	ld	a0,-56(s0)
    1260:	00000097          	auipc	ra,0x0
    1264:	000080e7          	jalr	ra # 1260 <.L103+0x4>
    1268:	fca43423          	sd	a0,-56(s0)
    126c:	fd840793          	addi	a5,s0,-40
    1270:	00078593          	mv	a1,a5
    1274:	fc843503          	ld	a0,-56(s0)
    1278:	00000097          	auipc	ra,0x0
    127c:	000080e7          	jalr	ra # 1278 <.L103+0x1c>
    1280:	00050793          	mv	a5,a0
    1284:	fcf42e23          	sw	a5,-36(s0)
    1288:	fdc42783          	lw	a5,-36(s0)
    128c:	0007879b          	sext.w	a5,a5
    1290:	00079663          	bnez	a5,129c <.L105>
    1294:	00000793          	li	a5,0
    1298:	3ec0006f          	j	1684 <.L120>

000000000000129c <.L105>:
    129c:	fd842783          	lw	a5,-40(s0)
    12a0:	0077979b          	slliw	a5,a5,0x7
    12a4:	0007879b          	sext.w	a5,a5
    12a8:	00078713          	mv	a4,a5
    12ac:	000017b7          	lui	a5,0x1
    12b0:	f8078793          	addi	a5,a5,-128 # f80 <.L87+0x44>
    12b4:	00f777b3          	and	a5,a4,a5
    12b8:	0007871b          	sext.w	a4,a5
    12bc:	fe442783          	lw	a5,-28(s0)
    12c0:	00e7e7b3          	or	a5,a5,a4
    12c4:	fef42223          	sw	a5,-28(s0)

00000000000012c8 <.L104>:
    12c8:	fe042783          	lw	a5,-32(s0)
    12cc:	0007879b          	sext.w	a5,a5
    12d0:	02078a63          	beqz	a5,1304 <.L106>
    12d4:	fe042783          	lw	a5,-32(s0)
    12d8:	0007871b          	sext.w	a4,a5
    12dc:	00100793          	li	a5,1
    12e0:	02f70263          	beq	a4,a5,1304 <.L106>
    12e4:	fe042783          	lw	a5,-32(s0)
    12e8:	0007871b          	sext.w	a4,a5
    12ec:	00200793          	li	a5,2
    12f0:	00f70a63          	beq	a4,a5,1304 <.L106>
    12f4:	fe042783          	lw	a5,-32(s0)
    12f8:	0007871b          	sext.w	a4,a5
    12fc:	00300793          	li	a5,3
    1300:	06f71663          	bne	a4,a5,136c <.L107>

0000000000001304 <.L106>:
    1304:	fc843503          	ld	a0,-56(s0)
    1308:	00000097          	auipc	ra,0x0
    130c:	000080e7          	jalr	ra # 1308 <.L106+0x4>
    1310:	fca43423          	sd	a0,-56(s0)
    1314:	fd840793          	addi	a5,s0,-40
    1318:	00078593          	mv	a1,a5
    131c:	fc843503          	ld	a0,-56(s0)
    1320:	00000097          	auipc	ra,0x0
    1324:	000080e7          	jalr	ra # 1320 <.L106+0x1c>
    1328:	00050793          	mv	a5,a0
    132c:	fcf42e23          	sw	a5,-36(s0)
    1330:	fdc42783          	lw	a5,-36(s0)
    1334:	0007879b          	sext.w	a5,a5
    1338:	00079663          	bnez	a5,1344 <.L108>
    133c:	00000793          	li	a5,0
    1340:	3440006f          	j	1684 <.L120>

0000000000001344 <.L108>:
    1344:	fd842783          	lw	a5,-40(s0)
    1348:	00f7979b          	slliw	a5,a5,0xf
    134c:	0007879b          	sext.w	a5,a5
    1350:	00078713          	mv	a4,a5
    1354:	000f87b7          	lui	a5,0xf8
    1358:	00f777b3          	and	a5,a4,a5
    135c:	0007871b          	sext.w	a4,a5
    1360:	fe442783          	lw	a5,-28(s0)
    1364:	00e7e7b3          	or	a5,a5,a4
    1368:	fef42223          	sw	a5,-28(s0)

000000000000136c <.L107>:
    136c:	fe042783          	lw	a5,-32(s0)
    1370:	0007879b          	sext.w	a5,a5
    1374:	02078263          	beqz	a5,1398 <.L109>
    1378:	fe042783          	lw	a5,-32(s0)
    137c:	0007871b          	sext.w	a4,a5
    1380:	00200793          	li	a5,2
    1384:	00f70a63          	beq	a4,a5,1398 <.L109>
    1388:	fe042783          	lw	a5,-32(s0)
    138c:	0007871b          	sext.w	a4,a5
    1390:	00300793          	li	a5,3
    1394:	06f71663          	bne	a4,a5,1400 <.L110>

0000000000001398 <.L109>:
    1398:	fc843503          	ld	a0,-56(s0)
    139c:	00000097          	auipc	ra,0x0
    13a0:	000080e7          	jalr	ra # 139c <.L109+0x4>
    13a4:	fca43423          	sd	a0,-56(s0)
    13a8:	fd840793          	addi	a5,s0,-40
    13ac:	00078593          	mv	a1,a5
    13b0:	fc843503          	ld	a0,-56(s0)
    13b4:	00000097          	auipc	ra,0x0
    13b8:	000080e7          	jalr	ra # 13b4 <.L109+0x1c>
    13bc:	00050793          	mv	a5,a0
    13c0:	fcf42e23          	sw	a5,-36(s0)
    13c4:	fdc42783          	lw	a5,-36(s0)
    13c8:	0007879b          	sext.w	a5,a5
    13cc:	00079663          	bnez	a5,13d8 <.L111>
    13d0:	00000793          	li	a5,0
    13d4:	2b00006f          	j	1684 <.L120>

00000000000013d8 <.L111>:
    13d8:	fd842783          	lw	a5,-40(s0)
    13dc:	0147979b          	slliw	a5,a5,0x14
    13e0:	0007879b          	sext.w	a5,a5
    13e4:	00078713          	mv	a4,a5
    13e8:	01f007b7          	lui	a5,0x1f00
    13ec:	00f777b3          	and	a5,a4,a5
    13f0:	0007871b          	sext.w	a4,a5
    13f4:	fe442783          	lw	a5,-28(s0)
    13f8:	00e7e7b3          	or	a5,a5,a4
    13fc:	fef42223          	sw	a5,-28(s0)

0000000000001400 <.L110>:
    1400:	fe042783          	lw	a5,-32(s0)
    1404:	0007879b          	sext.w	a5,a5
    1408:	26078a63          	beqz	a5,167c <.L121>
    140c:	fe042783          	lw	a5,-32(s0)
    1410:	0007871b          	sext.w	a4,a5
    1414:	00600793          	li	a5,6
    1418:	26f70263          	beq	a4,a5,167c <.L121>
    141c:	fc843503          	ld	a0,-56(s0)
    1420:	00000097          	auipc	ra,0x0
    1424:	000080e7          	jalr	ra # 1420 <.L110+0x20>
    1428:	fca43423          	sd	a0,-56(s0)
    142c:	fd840793          	addi	a5,s0,-40
    1430:	00078593          	mv	a1,a5
    1434:	fc843503          	ld	a0,-56(s0)
    1438:	00000097          	auipc	ra,0x0
    143c:	000080e7          	jalr	ra # 1438 <.L110+0x38>
    1440:	00050793          	mv	a5,a0
    1444:	fcf42e23          	sw	a5,-36(s0)
    1448:	fdc42783          	lw	a5,-36(s0)
    144c:	0007879b          	sext.w	a5,a5
    1450:	00079663          	bnez	a5,145c <.L113>
    1454:	00000793          	li	a5,0
    1458:	22c0006f          	j	1684 <.L120>

000000000000145c <.L113>:
    145c:	fe042783          	lw	a5,-32(s0)
    1460:	0007871b          	sext.w	a4,a5
    1464:	00500793          	li	a5,5
    1468:	20e7ec63          	bltu	a5,a4,1680 <.L112>
    146c:	fe046783          	lwu	a5,-32(s0)
    1470:	00279713          	slli	a4,a5,0x2
    1474:	00000797          	auipc	a5,0x0
    1478:	00078793          	mv	a5,a5
    147c:	00f707b3          	add	a5,a4,a5
    1480:	0007a783          	lw	a5,0(a5) # 1474 <.L113+0x18>
    1484:	0007871b          	sext.w	a4,a5
    1488:	00000797          	auipc	a5,0x0
    148c:	00078793          	mv	a5,a5
    1490:	00f707b3          	add	a5,a4,a5
    1494:	00078067          	jr	a5 # 1488 <.L113+0x2c>

0000000000001498 <.L119>:
    1498:	fd842783          	lw	a5,-40(s0)
    149c:	0147979b          	slliw	a5,a5,0x14
    14a0:	0007871b          	sext.w	a4,a5
    14a4:	fe442783          	lw	a5,-28(s0)
    14a8:	00e7e7b3          	or	a5,a5,a4
    14ac:	fef42223          	sw	a5,-28(s0)
    14b0:	1d00006f          	j	1680 <.L112>

00000000000014b4 <.L118>:
    14b4:	fd842783          	lw	a5,-40(s0)
    14b8:	0077979b          	slliw	a5,a5,0x7
    14bc:	0007879b          	sext.w	a5,a5
    14c0:	00078713          	mv	a4,a5
    14c4:	000017b7          	lui	a5,0x1
    14c8:	f8078793          	addi	a5,a5,-128 # f80 <.L87+0x44>
    14cc:	00f777b3          	and	a5,a4,a5
    14d0:	0007871b          	sext.w	a4,a5
    14d4:	fe442783          	lw	a5,-28(s0)
    14d8:	00e7e7b3          	or	a5,a5,a4
    14dc:	fef42223          	sw	a5,-28(s0)
    14e0:	fd842783          	lw	a5,-40(s0)
    14e4:	0057d79b          	srliw	a5,a5,0x5
    14e8:	0007879b          	sext.w	a5,a5
    14ec:	0197979b          	slliw	a5,a5,0x19
    14f0:	0007871b          	sext.w	a4,a5
    14f4:	fe442783          	lw	a5,-28(s0)
    14f8:	00e7e7b3          	or	a5,a5,a4
    14fc:	fef42223          	sw	a5,-28(s0)
    1500:	1800006f          	j	1680 <.L112>

0000000000001504 <.L117>:
    1504:	fd842783          	lw	a5,-40(s0)
    1508:	00b7d79b          	srliw	a5,a5,0xb
    150c:	0007879b          	sext.w	a5,a5
    1510:	0077979b          	slliw	a5,a5,0x7
    1514:	0007879b          	sext.w	a5,a5
    1518:	0ff7f793          	andi	a5,a5,255
    151c:	0007871b          	sext.w	a4,a5
    1520:	fe442783          	lw	a5,-28(s0)
    1524:	00e7e7b3          	or	a5,a5,a4
    1528:	fef42223          	sw	a5,-28(s0)
    152c:	fd842783          	lw	a5,-40(s0)
    1530:	0017d79b          	srliw	a5,a5,0x1
    1534:	0007879b          	sext.w	a5,a5
    1538:	0087979b          	slliw	a5,a5,0x8
    153c:	0007879b          	sext.w	a5,a5
    1540:	00078713          	mv	a4,a5
    1544:	000017b7          	lui	a5,0x1
    1548:	f0078793          	addi	a5,a5,-256 # f00 <.L85+0x10>
    154c:	00f777b3          	and	a5,a4,a5
    1550:	0007871b          	sext.w	a4,a5
    1554:	fe442783          	lw	a5,-28(s0)
    1558:	00e7e7b3          	or	a5,a5,a4
    155c:	fef42223          	sw	a5,-28(s0)
    1560:	fd842783          	lw	a5,-40(s0)
    1564:	0057d79b          	srliw	a5,a5,0x5
    1568:	0007879b          	sext.w	a5,a5
    156c:	0197979b          	slliw	a5,a5,0x19
    1570:	0007879b          	sext.w	a5,a5
    1574:	00078713          	mv	a4,a5
    1578:	7e0007b7          	lui	a5,0x7e000
    157c:	00f777b3          	and	a5,a4,a5
    1580:	0007871b          	sext.w	a4,a5
    1584:	fe442783          	lw	a5,-28(s0)
    1588:	00e7e7b3          	or	a5,a5,a4
    158c:	fef42223          	sw	a5,-28(s0)
    1590:	fd842783          	lw	a5,-40(s0)
    1594:	00c7d79b          	srliw	a5,a5,0xc
    1598:	0007879b          	sext.w	a5,a5
    159c:	01f7979b          	slliw	a5,a5,0x1f
    15a0:	0007871b          	sext.w	a4,a5
    15a4:	fe442783          	lw	a5,-28(s0)
    15a8:	00e7e7b3          	or	a5,a5,a4
    15ac:	fef42223          	sw	a5,-28(s0)
    15b0:	0d00006f          	j	1680 <.L112>

00000000000015b4 <.L116>:
    15b4:	fd842783          	lw	a5,-40(s0)
    15b8:	00078713          	mv	a4,a5
    15bc:	fffff7b7          	lui	a5,0xfffff
    15c0:	00f777b3          	and	a5,a4,a5
    15c4:	0007871b          	sext.w	a4,a5
    15c8:	fe442783          	lw	a5,-28(s0)
    15cc:	00e7e7b3          	or	a5,a5,a4
    15d0:	fef42223          	sw	a5,-28(s0)
    15d4:	0ac0006f          	j	1680 <.L112>

00000000000015d8 <.L114>:
    15d8:	fd842783          	lw	a5,-40(s0)
    15dc:	00078713          	mv	a4,a5
    15e0:	000ff7b7          	lui	a5,0xff
    15e4:	00f777b3          	and	a5,a4,a5
    15e8:	0007871b          	sext.w	a4,a5
    15ec:	fe442783          	lw	a5,-28(s0)
    15f0:	00e7e7b3          	or	a5,a5,a4
    15f4:	fef42223          	sw	a5,-28(s0)
    15f8:	fd842783          	lw	a5,-40(s0)
    15fc:	00b7d79b          	srliw	a5,a5,0xb
    1600:	0007879b          	sext.w	a5,a5
    1604:	0147979b          	slliw	a5,a5,0x14
    1608:	0007879b          	sext.w	a5,a5
    160c:	00078713          	mv	a4,a5
    1610:	001007b7          	lui	a5,0x100
    1614:	00f777b3          	and	a5,a4,a5
    1618:	0007871b          	sext.w	a4,a5
    161c:	fe442783          	lw	a5,-28(s0)
    1620:	00e7e7b3          	or	a5,a5,a4
    1624:	fef42223          	sw	a5,-28(s0)
    1628:	fd842783          	lw	a5,-40(s0)
    162c:	0017d79b          	srliw	a5,a5,0x1
    1630:	0007879b          	sext.w	a5,a5
    1634:	0157979b          	slliw	a5,a5,0x15
    1638:	0007879b          	sext.w	a5,a5
    163c:	00078713          	mv	a4,a5
    1640:	7fe007b7          	lui	a5,0x7fe00
    1644:	00f777b3          	and	a5,a4,a5
    1648:	0007871b          	sext.w	a4,a5
    164c:	fe442783          	lw	a5,-28(s0)
    1650:	00e7e7b3          	or	a5,a5,a4
    1654:	fef42223          	sw	a5,-28(s0)
    1658:	fd842783          	lw	a5,-40(s0)
    165c:	0147d79b          	srliw	a5,a5,0x14
    1660:	0007879b          	sext.w	a5,a5
    1664:	01f7979b          	slliw	a5,a5,0x1f
    1668:	0007871b          	sext.w	a4,a5
    166c:	fe442783          	lw	a5,-28(s0)
    1670:	00e7e7b3          	or	a5,a5,a4
    1674:	fef42223          	sw	a5,-28(s0)
    1678:	0080006f          	j	1680 <.L112>

000000000000167c <.L121>:
    167c:	00000013          	nop

0000000000001680 <.L112>:
    1680:	fe442783          	lw	a5,-28(s0)

0000000000001684 <.L120>:
    1684:	00078513          	mv	a0,a5
    1688:	03813083          	ld	ra,56(sp)
    168c:	03013403          	ld	s0,48(sp)
    1690:	04010113          	addi	sp,sp,64
    1694:	00008067          	ret

0000000000001698 <inst_exe>:
    1698:	fd010113          	addi	sp,sp,-48
    169c:	02113423          	sd	ra,40(sp)
    16a0:	02813023          	sd	s0,32(sp)
    16a4:	03010413          	addi	s0,sp,48
    16a8:	00000517          	auipc	a0,0x0
    16ac:	00050513          	mv	a0,a0
    16b0:	00000097          	auipc	ra,0x0
    16b4:	000080e7          	jalr	ra # 16b0 <inst_exe+0x18>
    16b8:	fea43023          	sd	a0,-32(s0)
    16bc:	fe043783          	ld	a5,-32(s0)
    16c0:	0007c783          	lbu	a5,0(a5) # 7fe00000 <.L195+0x7fdfde80>
    16c4:	0a078263          	beqz	a5,1768 <.L128>
    16c8:	fe043783          	ld	a5,-32(s0)
    16cc:	00178793          	addi	a5,a5,1
    16d0:	0007c783          	lbu	a5,0(a5)
    16d4:	08078a63          	beqz	a5,1768 <.L128>
    16d8:	fe043503          	ld	a0,-32(s0)
    16dc:	00000097          	auipc	ra,0x0
    16e0:	000080e7          	jalr	ra # 16dc <inst_exe+0x44>
    16e4:	00050793          	mv	a5,a0
    16e8:	fef42623          	sw	a5,-20(s0)

00000000000016ec <.L127>:
    16ec:	00000517          	auipc	a0,0x0
    16f0:	00050513          	mv	a0,a0
    16f4:	00000097          	auipc	ra,0x0
    16f8:	000080e7          	jalr	ra # 16f4 <.L127+0x8>
    16fc:	fec42783          	lw	a5,-20(s0)
    1700:	00078513          	mv	a0,a5
    1704:	00000097          	auipc	ra,0x0
    1708:	000080e7          	jalr	ra # 1704 <.L127+0x18>
    170c:	00000517          	auipc	a0,0x0
    1710:	00050513          	mv	a0,a0
    1714:	00000097          	auipc	ra,0x0
    1718:	000080e7          	jalr	ra # 1714 <.L127+0x28>
    171c:	00000097          	auipc	ra,0x0
    1720:	000080e7          	jalr	ra # 171c <.L127+0x30>
    1724:	00000517          	auipc	a0,0x0
    1728:	00050513          	mv	a0,a0
    172c:	00000097          	auipc	ra,0x0
    1730:	000080e7          	jalr	ra # 172c <.L127+0x40>
    1734:	00050793          	mv	a5,a0
    1738:	fcf42e23          	sw	a5,-36(s0)
    173c:	fdc42783          	lw	a5,-36(s0)
    1740:	0007879b          	sext.w	a5,a5
    1744:	02078663          	beqz	a5,1770 <.L129>
    1748:	fec46783          	lwu	a5,-20(s0)
    174c:	00078713          	mv	a4,a5
    1750:	fdc42783          	lw	a5,-36(s0)
    1754:	00f72023          	sw	a5,0(a4) # 11f4 <.L101+0xc>
    1758:	fec42783          	lw	a5,-20(s0)
    175c:	0047879b          	addiw	a5,a5,4
    1760:	fef42623          	sw	a5,-20(s0)
    1764:	f89ff06f          	j	16ec <.L127>

0000000000001768 <.L128>:
    1768:	00000013          	nop
    176c:	0080006f          	j	1774 <.L122>

0000000000001770 <.L129>:
    1770:	00000013          	nop

0000000000001774 <.L122>:
    1774:	02813083          	ld	ra,40(sp)
    1778:	02013403          	ld	s0,32(sp)
    177c:	03010113          	addi	sp,sp,48
    1780:	00008067          	ret

0000000000001784 <view_exe>:
    1784:	fd010113          	addi	sp,sp,-48
    1788:	02113423          	sd	ra,40(sp)
    178c:	02813023          	sd	s0,32(sp)
    1790:	03010413          	addi	s0,sp,48
    1794:	00000517          	auipc	a0,0x0
    1798:	00050513          	mv	a0,a0
    179c:	00000097          	auipc	ra,0x0
    17a0:	000080e7          	jalr	ra # 179c <view_exe+0x18>
    17a4:	fea43023          	sd	a0,-32(s0)
    17a8:	fe043783          	ld	a5,-32(s0)
    17ac:	0007c783          	lbu	a5,0(a5)
    17b0:	0e078463          	beqz	a5,1898 <.L138>
    17b4:	fe043783          	ld	a5,-32(s0)
    17b8:	00178793          	addi	a5,a5,1
    17bc:	0007c783          	lbu	a5,0(a5)
    17c0:	0c078c63          	beqz	a5,1898 <.L138>
    17c4:	fe043503          	ld	a0,-32(s0)
    17c8:	00000097          	auipc	ra,0x0
    17cc:	000080e7          	jalr	ra # 17c8 <view_exe+0x44>
    17d0:	00050793          	mv	a5,a0
    17d4:	fef42623          	sw	a5,-20(s0)
    17d8:	fe043503          	ld	a0,-32(s0)
    17dc:	00000097          	auipc	ra,0x0
    17e0:	000080e7          	jalr	ra # 17dc <view_exe+0x58>
    17e4:	fea43023          	sd	a0,-32(s0)
    17e8:	fe043783          	ld	a5,-32(s0)
    17ec:	0007c783          	lbu	a5,0(a5)
    17f0:	0a078863          	beqz	a5,18a0 <.L139>
    17f4:	fe043783          	ld	a5,-32(s0)
    17f8:	00178793          	addi	a5,a5,1
    17fc:	0007c783          	lbu	a5,0(a5)
    1800:	0a078063          	beqz	a5,18a0 <.L139>
    1804:	fe043503          	ld	a0,-32(s0)
    1808:	00000097          	auipc	ra,0x0
    180c:	000080e7          	jalr	ra # 1808 <view_exe+0x84>
    1810:	00050793          	mv	a5,a0
    1814:	fef42423          	sw	a5,-24(s0)
    1818:	06c0006f          	j	1884 <.L136>

000000000000181c <.L137>:
    181c:	00000517          	auipc	a0,0x0
    1820:	00050513          	mv	a0,a0
    1824:	00000097          	auipc	ra,0x0
    1828:	000080e7          	jalr	ra # 1824 <.L137+0x8>
    182c:	fec42783          	lw	a5,-20(s0)
    1830:	00078513          	mv	a0,a5
    1834:	00000097          	auipc	ra,0x0
    1838:	000080e7          	jalr	ra # 1834 <.L137+0x18>
    183c:	00000517          	auipc	a0,0x0
    1840:	00050513          	mv	a0,a0
    1844:	00000097          	auipc	ra,0x0
    1848:	000080e7          	jalr	ra # 1844 <.L137+0x28>
    184c:	fec46783          	lwu	a5,-20(s0)
    1850:	0007a783          	lw	a5,0(a5)
    1854:	fcf42e23          	sw	a5,-36(s0)
    1858:	fdc42783          	lw	a5,-36(s0)
    185c:	00078513          	mv	a0,a5
    1860:	00000097          	auipc	ra,0x0
    1864:	000080e7          	jalr	ra # 1860 <.L137+0x44>
    1868:	00000517          	auipc	a0,0x0
    186c:	00050513          	mv	a0,a0
    1870:	00000097          	auipc	ra,0x0
    1874:	000080e7          	jalr	ra # 1870 <.L137+0x54>
    1878:	fec42783          	lw	a5,-20(s0)
    187c:	0047879b          	addiw	a5,a5,4
    1880:	fef42623          	sw	a5,-20(s0)

0000000000001884 <.L136>:
    1884:	fe842783          	lw	a5,-24(s0)
    1888:	fff7871b          	addiw	a4,a5,-1
    188c:	fee42423          	sw	a4,-24(s0)
    1890:	f80796e3          	bnez	a5,181c <.L137>
    1894:	0100006f          	j	18a4 <.L130>

0000000000001898 <.L138>:
    1898:	00000013          	nop
    189c:	0080006f          	j	18a4 <.L130>

00000000000018a0 <.L139>:
    18a0:	00000013          	nop

00000000000018a4 <.L130>:
    18a4:	02813083          	ld	ra,40(sp)
    18a8:	02013403          	ld	s0,32(sp)
    18ac:	03010113          	addi	sp,sp,48
    18b0:	00008067          	ret

00000000000018b4 <print_int2inst>:
    18b4:	fd010113          	addi	sp,sp,-48
    18b8:	02113423          	sd	ra,40(sp)
    18bc:	02813023          	sd	s0,32(sp)
    18c0:	03010413          	addi	s0,sp,48
    18c4:	00050793          	mv	a5,a0
    18c8:	fcf42e23          	sw	a5,-36(s0)
    18cc:	fe042623          	sw	zero,-20(s0)
    18d0:	1440006f          	j	1a14 <.L141>

00000000000018d4 <.L149>:
    18d4:	00000717          	auipc	a4,0x0
    18d8:	00070713          	mv	a4,a4
    18dc:	fec42783          	lw	a5,-20(s0)
    18e0:	00479793          	slli	a5,a5,0x4
    18e4:	00f707b3          	add	a5,a4,a5
    18e8:	0047a703          	lw	a4,4(a5)
    18ec:	fdc42783          	lw	a5,-36(s0)
    18f0:	07f7f793          	andi	a5,a5,127
    18f4:	0007879b          	sext.w	a5,a5
    18f8:	0ef71e63          	bne	a4,a5,19f4 <.L165>
    18fc:	00000717          	auipc	a4,0x0
    1900:	00070713          	mv	a4,a4
    1904:	fec42783          	lw	a5,-20(s0)
    1908:	00479793          	slli	a5,a5,0x4
    190c:	00f707b3          	add	a5,a4,a5
    1910:	0007a783          	lw	a5,0(a5)
    1914:	fef42423          	sw	a5,-24(s0)
    1918:	fe842783          	lw	a5,-24(s0)
    191c:	0007879b          	sext.w	a5,a5
    1920:	02079663          	bnez	a5,194c <.L144>
    1924:	00000717          	auipc	a4,0x0
    1928:	00070713          	mv	a4,a4
    192c:	fec42783          	lw	a5,-20(s0)
    1930:	00479793          	slli	a5,a5,0x4
    1934:	00f707b3          	add	a5,a4,a5
    1938:	00c7a703          	lw	a4,12(a5)
    193c:	fdc42783          	lw	a5,-36(s0)
    1940:	0197d79b          	srliw	a5,a5,0x19
    1944:	0007879b          	sext.w	a5,a5
    1948:	0af71a63          	bne	a4,a5,19fc <.L166>

000000000000194c <.L144>:
    194c:	fe842783          	lw	a5,-24(s0)
    1950:	0007879b          	sext.w	a5,a5
    1954:	02078a63          	beqz	a5,1988 <.L145>
    1958:	fe842783          	lw	a5,-24(s0)
    195c:	0007871b          	sext.w	a4,a5
    1960:	00100793          	li	a5,1
    1964:	02f70263          	beq	a4,a5,1988 <.L145>
    1968:	fe842783          	lw	a5,-24(s0)
    196c:	0007871b          	sext.w	a4,a5
    1970:	00200793          	li	a5,2
    1974:	00f70a63          	beq	a4,a5,1988 <.L145>
    1978:	fe842783          	lw	a5,-24(s0)
    197c:	0007871b          	sext.w	a4,a5
    1980:	00300793          	li	a5,3
    1984:	02f71a63          	bne	a4,a5,19b8 <.L146>

0000000000001988 <.L145>:
    1988:	00000717          	auipc	a4,0x0
    198c:	00070713          	mv	a4,a4
    1990:	fec42783          	lw	a5,-20(s0)
    1994:	00479793          	slli	a5,a5,0x4
    1998:	00f707b3          	add	a5,a4,a5
    199c:	0087a703          	lw	a4,8(a5)
    19a0:	fdc42783          	lw	a5,-36(s0)
    19a4:	00c7d79b          	srliw	a5,a5,0xc
    19a8:	0007879b          	sext.w	a5,a5
    19ac:	0077f793          	andi	a5,a5,7
    19b0:	0007879b          	sext.w	a5,a5
    19b4:	04f71863          	bne	a4,a5,1a04 <.L167>

00000000000019b8 <.L146>:
    19b8:	fe842783          	lw	a5,-24(s0)
    19bc:	0007871b          	sext.w	a4,a5
    19c0:	00600793          	li	a5,6
    19c4:	06f71263          	bne	a4,a5,1a28 <.L168>
    19c8:	00000717          	auipc	a4,0x0
    19cc:	00070713          	mv	a4,a4
    19d0:	fec42783          	lw	a5,-20(s0)
    19d4:	00479793          	slli	a5,a5,0x4
    19d8:	00f707b3          	add	a5,a4,a5
    19dc:	0087a703          	lw	a4,8(a5)
    19e0:	fdc42783          	lw	a5,-36(s0)
    19e4:	0077d79b          	srliw	a5,a5,0x7
    19e8:	0007879b          	sext.w	a5,a5
    19ec:	02f70e63          	beq	a4,a5,1a28 <.L168>
    19f0:	0180006f          	j	1a08 <.L143>

00000000000019f4 <.L165>:
    19f4:	00000013          	nop
    19f8:	0100006f          	j	1a08 <.L143>

00000000000019fc <.L166>:
    19fc:	00000013          	nop
    1a00:	0080006f          	j	1a08 <.L143>

0000000000001a04 <.L167>:
    1a04:	00000013          	nop

0000000000001a08 <.L143>:
    1a08:	fec42783          	lw	a5,-20(s0)
    1a0c:	0017879b          	addiw	a5,a5,1
    1a10:	fef42623          	sw	a5,-20(s0)

0000000000001a14 <.L141>:
    1a14:	fec42783          	lw	a5,-20(s0)
    1a18:	0007871b          	sext.w	a4,a5
    1a1c:	02700793          	li	a5,39
    1a20:	eae7dae3          	bge	a5,a4,18d4 <.L149>
    1a24:	0080006f          	j	1a2c <.L148>

0000000000001a28 <.L168>:
    1a28:	00000013          	nop

0000000000001a2c <.L148>:
    1a2c:	fec42783          	lw	a5,-20(s0)
    1a30:	0007871b          	sext.w	a4,a5
    1a34:	02800793          	li	a5,40
    1a38:	00f71c63          	bne	a4,a5,1a50 <.L150>
    1a3c:	00000517          	auipc	a0,0x0
    1a40:	00050513          	mv	a0,a0
    1a44:	00000097          	auipc	ra,0x0
    1a48:	000080e7          	jalr	ra # 1a44 <.L148+0x18>
    1a4c:	3740006f          	j	1dc0 <.L140>

0000000000001a50 <.L150>:
    1a50:	fec42703          	lw	a4,-20(s0)
    1a54:	00070793          	mv	a5,a4
    1a58:	00379793          	slli	a5,a5,0x3
    1a5c:	40e787b3          	sub	a5,a5,a4
    1a60:	00000717          	auipc	a4,0x0
    1a64:	00070713          	mv	a4,a4
    1a68:	00e787b3          	add	a5,a5,a4
    1a6c:	00078513          	mv	a0,a5
    1a70:	00000097          	auipc	ra,0x0
    1a74:	000080e7          	jalr	ra # 1a70 <.L150+0x20>
    1a78:	fe842783          	lw	a5,-24(s0)
    1a7c:	0007879b          	sext.w	a5,a5
    1a80:	02078a63          	beqz	a5,1ab4 <.L152>
    1a84:	fe842783          	lw	a5,-24(s0)
    1a88:	0007871b          	sext.w	a4,a5
    1a8c:	00100793          	li	a5,1
    1a90:	02f70263          	beq	a4,a5,1ab4 <.L152>
    1a94:	fe842783          	lw	a5,-24(s0)
    1a98:	0007871b          	sext.w	a4,a5
    1a9c:	00400793          	li	a5,4
    1aa0:	00f70a63          	beq	a4,a5,1ab4 <.L152>
    1aa4:	fe842783          	lw	a5,-24(s0)
    1aa8:	0007871b          	sext.w	a4,a5
    1aac:	00500793          	li	a5,5
    1ab0:	02f71a63          	bne	a4,a5,1ae4 <.L153>

0000000000001ab4 <.L152>:
    1ab4:	00000517          	auipc	a0,0x0
    1ab8:	00050513          	mv	a0,a0
    1abc:	00000097          	auipc	ra,0x0
    1ac0:	000080e7          	jalr	ra # 1abc <.L152+0x8>
    1ac4:	fdc42783          	lw	a5,-36(s0)
    1ac8:	0077d79b          	srliw	a5,a5,0x7
    1acc:	0007879b          	sext.w	a5,a5
    1ad0:	01f7f793          	andi	a5,a5,31
    1ad4:	0007879b          	sext.w	a5,a5
    1ad8:	00078513          	mv	a0,a5
    1adc:	00000097          	auipc	ra,0x0
    1ae0:	000080e7          	jalr	ra # 1adc <.L152+0x28>

0000000000001ae4 <.L153>:
    1ae4:	fe842783          	lw	a5,-24(s0)
    1ae8:	0007879b          	sext.w	a5,a5
    1aec:	02078a63          	beqz	a5,1b20 <.L154>
    1af0:	fe842783          	lw	a5,-24(s0)
    1af4:	0007871b          	sext.w	a4,a5
    1af8:	00100793          	li	a5,1
    1afc:	02f70263          	beq	a4,a5,1b20 <.L154>
    1b00:	fe842783          	lw	a5,-24(s0)
    1b04:	0007871b          	sext.w	a4,a5
    1b08:	00200793          	li	a5,2
    1b0c:	00f70a63          	beq	a4,a5,1b20 <.L154>
    1b10:	fe842783          	lw	a5,-24(s0)
    1b14:	0007871b          	sext.w	a4,a5
    1b18:	00300793          	li	a5,3
    1b1c:	02f71a63          	bne	a4,a5,1b50 <.L155>

0000000000001b20 <.L154>:
    1b20:	00000517          	auipc	a0,0x0
    1b24:	00050513          	mv	a0,a0
    1b28:	00000097          	auipc	ra,0x0
    1b2c:	000080e7          	jalr	ra # 1b28 <.L154+0x8>
    1b30:	fdc42783          	lw	a5,-36(s0)
    1b34:	00f7d79b          	srliw	a5,a5,0xf
    1b38:	0007879b          	sext.w	a5,a5
    1b3c:	01f7f793          	andi	a5,a5,31
    1b40:	0007879b          	sext.w	a5,a5
    1b44:	00078513          	mv	a0,a5
    1b48:	00000097          	auipc	ra,0x0
    1b4c:	000080e7          	jalr	ra # 1b48 <.L154+0x28>

0000000000001b50 <.L155>:
    1b50:	fe842783          	lw	a5,-24(s0)
    1b54:	0007879b          	sext.w	a5,a5
    1b58:	02078263          	beqz	a5,1b7c <.L156>
    1b5c:	fe842783          	lw	a5,-24(s0)
    1b60:	0007871b          	sext.w	a4,a5
    1b64:	00200793          	li	a5,2
    1b68:	00f70a63          	beq	a4,a5,1b7c <.L156>
    1b6c:	fe842783          	lw	a5,-24(s0)
    1b70:	0007871b          	sext.w	a4,a5
    1b74:	00300793          	li	a5,3
    1b78:	02f71a63          	bne	a4,a5,1bac <.L157>

0000000000001b7c <.L156>:
    1b7c:	00000517          	auipc	a0,0x0
    1b80:	00050513          	mv	a0,a0
    1b84:	00000097          	auipc	ra,0x0
    1b88:	000080e7          	jalr	ra # 1b84 <.L156+0x8>
    1b8c:	fdc42783          	lw	a5,-36(s0)
    1b90:	0147d79b          	srliw	a5,a5,0x14
    1b94:	0007879b          	sext.w	a5,a5
    1b98:	01f7f793          	andi	a5,a5,31
    1b9c:	0007879b          	sext.w	a5,a5
    1ba0:	00078513          	mv	a0,a5
    1ba4:	00000097          	auipc	ra,0x0
    1ba8:	000080e7          	jalr	ra # 1ba4 <.L156+0x28>

0000000000001bac <.L157>:
    1bac:	fe042223          	sw	zero,-28(s0)
    1bb0:	fe842783          	lw	a5,-24(s0)
    1bb4:	0007879b          	sext.w	a5,a5
    1bb8:	20078463          	beqz	a5,1dc0 <.L140>
    1bbc:	fe842783          	lw	a5,-24(s0)
    1bc0:	0007871b          	sext.w	a4,a5
    1bc4:	00600793          	li	a5,6
    1bc8:	1ef70c63          	beq	a4,a5,1dc0 <.L140>
    1bcc:	fe842783          	lw	a5,-24(s0)
    1bd0:	0007871b          	sext.w	a4,a5
    1bd4:	00500793          	li	a5,5
    1bd8:	1ce7e463          	bltu	a5,a4,1da0 <.L158>
    1bdc:	fe846783          	lwu	a5,-24(s0)
    1be0:	00279713          	slli	a4,a5,0x2
    1be4:	00000797          	auipc	a5,0x0
    1be8:	00078793          	mv	a5,a5
    1bec:	00f707b3          	add	a5,a4,a5
    1bf0:	0007a783          	lw	a5,0(a5) # 1be4 <.L157+0x38>
    1bf4:	0007871b          	sext.w	a4,a5
    1bf8:	00000797          	auipc	a5,0x0
    1bfc:	00078793          	mv	a5,a5
    1c00:	00f707b3          	add	a5,a4,a5
    1c04:	00078067          	jr	a5 # 1bf8 <.L157+0x4c>

0000000000001c08 <.L164>:
    1c08:	fdc42783          	lw	a5,-36(s0)
    1c0c:	0147d79b          	srliw	a5,a5,0x14
    1c10:	fef42223          	sw	a5,-28(s0)
    1c14:	18c0006f          	j	1da0 <.L158>

0000000000001c18 <.L163>:
    1c18:	fdc42783          	lw	a5,-36(s0)
    1c1c:	0077d79b          	srliw	a5,a5,0x7
    1c20:	0007879b          	sext.w	a5,a5
    1c24:	01f7f793          	andi	a5,a5,31
    1c28:	0007871b          	sext.w	a4,a5
    1c2c:	fdc42783          	lw	a5,-36(s0)
    1c30:	0197d79b          	srliw	a5,a5,0x19
    1c34:	0007879b          	sext.w	a5,a5
    1c38:	0057979b          	slliw	a5,a5,0x5
    1c3c:	0007879b          	sext.w	a5,a5
    1c40:	00f767b3          	or	a5,a4,a5
    1c44:	fef42223          	sw	a5,-28(s0)
    1c48:	1580006f          	j	1da0 <.L158>

0000000000001c4c <.L162>:
    1c4c:	fdc42783          	lw	a5,-36(s0)
    1c50:	0077d79b          	srliw	a5,a5,0x7
    1c54:	0007879b          	sext.w	a5,a5
    1c58:	00b7979b          	slliw	a5,a5,0xb
    1c5c:	0007879b          	sext.w	a5,a5
    1c60:	00078713          	mv	a4,a5
    1c64:	000017b7          	lui	a5,0x1
    1c68:	80078793          	addi	a5,a5,-2048 # 800 <.L46+0x40>
    1c6c:	00f777b3          	and	a5,a4,a5
    1c70:	0007871b          	sext.w	a4,a5
    1c74:	fe442783          	lw	a5,-28(s0)
    1c78:	00e7e7b3          	or	a5,a5,a4
    1c7c:	fef42223          	sw	a5,-28(s0)
    1c80:	fdc42783          	lw	a5,-36(s0)
    1c84:	0087d79b          	srliw	a5,a5,0x8
    1c88:	0007879b          	sext.w	a5,a5
    1c8c:	0017979b          	slliw	a5,a5,0x1
    1c90:	0007879b          	sext.w	a5,a5
    1c94:	01e7f793          	andi	a5,a5,30
    1c98:	0007871b          	sext.w	a4,a5
    1c9c:	fe442783          	lw	a5,-28(s0)
    1ca0:	00e7e7b3          	or	a5,a5,a4
    1ca4:	fef42223          	sw	a5,-28(s0)
    1ca8:	fdc42783          	lw	a5,-36(s0)
    1cac:	0197d79b          	srliw	a5,a5,0x19
    1cb0:	0007879b          	sext.w	a5,a5
    1cb4:	0057979b          	slliw	a5,a5,0x5
    1cb8:	0007879b          	sext.w	a5,a5
    1cbc:	7e07f793          	andi	a5,a5,2016
    1cc0:	0007871b          	sext.w	a4,a5
    1cc4:	fe442783          	lw	a5,-28(s0)
    1cc8:	00e7e7b3          	or	a5,a5,a4
    1ccc:	fef42223          	sw	a5,-28(s0)
    1cd0:	fdc42783          	lw	a5,-36(s0)
    1cd4:	01f7d79b          	srliw	a5,a5,0x1f
    1cd8:	0007879b          	sext.w	a5,a5
    1cdc:	00c7979b          	slliw	a5,a5,0xc
    1ce0:	0007871b          	sext.w	a4,a5
    1ce4:	fe442783          	lw	a5,-28(s0)
    1ce8:	00e7e7b3          	or	a5,a5,a4
    1cec:	fef42223          	sw	a5,-28(s0)
    1cf0:	0b00006f          	j	1da0 <.L158>

0000000000001cf4 <.L161>:
    1cf4:	fdc42703          	lw	a4,-36(s0)
    1cf8:	fffff7b7          	lui	a5,0xfffff
    1cfc:	00f777b3          	and	a5,a4,a5
    1d00:	fef42223          	sw	a5,-28(s0)
    1d04:	09c0006f          	j	1da0 <.L158>

0000000000001d08 <.L159>:
    1d08:	fdc42703          	lw	a4,-36(s0)
    1d0c:	000ff7b7          	lui	a5,0xff
    1d10:	00f777b3          	and	a5,a4,a5
    1d14:	0007871b          	sext.w	a4,a5
    1d18:	fe442783          	lw	a5,-28(s0)
    1d1c:	00e7e7b3          	or	a5,a5,a4
    1d20:	fef42223          	sw	a5,-28(s0)
    1d24:	fdc42783          	lw	a5,-36(s0)
    1d28:	0147d79b          	srliw	a5,a5,0x14
    1d2c:	0007879b          	sext.w	a5,a5
    1d30:	00b7979b          	slliw	a5,a5,0xb
    1d34:	0007879b          	sext.w	a5,a5
    1d38:	00078713          	mv	a4,a5
    1d3c:	000017b7          	lui	a5,0x1
    1d40:	80078793          	addi	a5,a5,-2048 # 800 <.L46+0x40>
    1d44:	00f777b3          	and	a5,a4,a5
    1d48:	0007871b          	sext.w	a4,a5
    1d4c:	fe442783          	lw	a5,-28(s0)
    1d50:	00e7e7b3          	or	a5,a5,a4
    1d54:	fef42223          	sw	a5,-28(s0)
    1d58:	fdc42783          	lw	a5,-36(s0)
    1d5c:	0157d79b          	srliw	a5,a5,0x15
    1d60:	0007879b          	sext.w	a5,a5
    1d64:	0017979b          	slliw	a5,a5,0x1
    1d68:	0007879b          	sext.w	a5,a5
    1d6c:	7fe7f793          	andi	a5,a5,2046
    1d70:	0007871b          	sext.w	a4,a5
    1d74:	fe442783          	lw	a5,-28(s0)
    1d78:	00e7e7b3          	or	a5,a5,a4
    1d7c:	fef42223          	sw	a5,-28(s0)
    1d80:	fdc42783          	lw	a5,-36(s0)
    1d84:	01f7d79b          	srliw	a5,a5,0x1f
    1d88:	0007879b          	sext.w	a5,a5
    1d8c:	0147979b          	slliw	a5,a5,0x14
    1d90:	0007871b          	sext.w	a4,a5
    1d94:	fe442783          	lw	a5,-28(s0)
    1d98:	00e7e7b3          	or	a5,a5,a4
    1d9c:	fef42223          	sw	a5,-28(s0)

0000000000001da0 <.L158>:
    1da0:	00000517          	auipc	a0,0x0
    1da4:	00050513          	mv	a0,a0
    1da8:	00000097          	auipc	ra,0x0
    1dac:	000080e7          	jalr	ra # 1da8 <.L158+0x8>
    1db0:	fe442783          	lw	a5,-28(s0)
    1db4:	00078513          	mv	a0,a5
    1db8:	00000097          	auipc	ra,0x0
    1dbc:	000080e7          	jalr	ra # 1db8 <.L158+0x18>

0000000000001dc0 <.L140>:
    1dc0:	02813083          	ld	ra,40(sp)
    1dc4:	02013403          	ld	s0,32(sp)
    1dc8:	03010113          	addi	sp,sp,48
    1dcc:	00008067          	ret

0000000000001dd0 <timelim_exe>:
    1dd0:	fe010113          	addi	sp,sp,-32
    1dd4:	00113c23          	sd	ra,24(sp)
    1dd8:	00813823          	sd	s0,16(sp)
    1ddc:	02010413          	addi	s0,sp,32
    1de0:	00000517          	auipc	a0,0x0
    1de4:	00050513          	mv	a0,a0
    1de8:	00000097          	auipc	ra,0x0
    1dec:	000080e7          	jalr	ra # 1de8 <timelim_exe+0x18>
    1df0:	fea43423          	sd	a0,-24(s0)
    1df4:	fe843783          	ld	a5,-24(s0)
    1df8:	0007c783          	lbu	a5,0(a5)
    1dfc:	00078a63          	beqz	a5,1e10 <.L170>
    1e00:	fe843783          	ld	a5,-24(s0)
    1e04:	00178793          	addi	a5,a5,1
    1e08:	0007c783          	lbu	a5,0(a5)
    1e0c:	04079063          	bnez	a5,1e4c <.L171>

0000000000001e10 <.L170>:
    1e10:	00000517          	auipc	a0,0x0
    1e14:	00050513          	mv	a0,a0
    1e18:	00000097          	auipc	ra,0x0
    1e1c:	000080e7          	jalr	ra # 1e18 <.L170+0x8>
    1e20:	00000797          	auipc	a5,0x0
    1e24:	00078793          	mv	a5,a5
    1e28:	0007a783          	lw	a5,0(a5) # 1e20 <.L170+0x10>
    1e2c:	00078513          	mv	a0,a5
    1e30:	00000097          	auipc	ra,0x0
    1e34:	000080e7          	jalr	ra # 1e30 <.L170+0x20>
    1e38:	00000517          	auipc	a0,0x0
    1e3c:	00050513          	mv	a0,a0
    1e40:	00000097          	auipc	ra,0x0
    1e44:	000080e7          	jalr	ra # 1e40 <.L170+0x30>
    1e48:	0240006f          	j	1e6c <.L172>

0000000000001e4c <.L171>:
    1e4c:	fe843503          	ld	a0,-24(s0)
    1e50:	00000097          	auipc	ra,0x0
    1e54:	000080e7          	jalr	ra # 1e50 <.L171+0x4>
    1e58:	00050793          	mv	a5,a0
    1e5c:	0007871b          	sext.w	a4,a5
    1e60:	00000797          	auipc	a5,0x0
    1e64:	00078793          	mv	a5,a5
    1e68:	00e7a023          	sw	a4,0(a5) # 1e60 <.L171+0x14>

0000000000001e6c <.L172>:
    1e6c:	00000013          	nop
    1e70:	01813083          	ld	ra,24(sp)
    1e74:	01013403          	ld	s0,16(sp)
    1e78:	02010113          	addi	sp,sp,32
    1e7c:	00008067          	ret

0000000000001e80 <disas_exe>:
    1e80:	fd010113          	addi	sp,sp,-48
    1e84:	02113423          	sd	ra,40(sp)
    1e88:	02813023          	sd	s0,32(sp)
    1e8c:	03010413          	addi	s0,sp,48
    1e90:	00000517          	auipc	a0,0x0
    1e94:	00050513          	mv	a0,a0
    1e98:	00000097          	auipc	ra,0x0
    1e9c:	000080e7          	jalr	ra # 1e98 <disas_exe+0x18>
    1ea0:	fea43023          	sd	a0,-32(s0)
    1ea4:	fe043783          	ld	a5,-32(s0)
    1ea8:	0007c783          	lbu	a5,0(a5)
    1eac:	0e078463          	beqz	a5,1f94 <.L181>
    1eb0:	fe043783          	ld	a5,-32(s0)
    1eb4:	00178793          	addi	a5,a5,1
    1eb8:	0007c783          	lbu	a5,0(a5)
    1ebc:	0c078c63          	beqz	a5,1f94 <.L181>
    1ec0:	fe043503          	ld	a0,-32(s0)
    1ec4:	00000097          	auipc	ra,0x0
    1ec8:	000080e7          	jalr	ra # 1ec4 <disas_exe+0x44>
    1ecc:	00050793          	mv	a5,a0
    1ed0:	fef42623          	sw	a5,-20(s0)
    1ed4:	fe043503          	ld	a0,-32(s0)
    1ed8:	00000097          	auipc	ra,0x0
    1edc:	000080e7          	jalr	ra # 1ed8 <disas_exe+0x58>
    1ee0:	fea43023          	sd	a0,-32(s0)
    1ee4:	fe043783          	ld	a5,-32(s0)
    1ee8:	0007c783          	lbu	a5,0(a5)
    1eec:	0a078863          	beqz	a5,1f9c <.L182>
    1ef0:	fe043783          	ld	a5,-32(s0)
    1ef4:	00178793          	addi	a5,a5,1
    1ef8:	0007c783          	lbu	a5,0(a5)
    1efc:	0a078063          	beqz	a5,1f9c <.L182>
    1f00:	fe043503          	ld	a0,-32(s0)
    1f04:	00000097          	auipc	ra,0x0
    1f08:	000080e7          	jalr	ra # 1f04 <disas_exe+0x84>
    1f0c:	00050793          	mv	a5,a0
    1f10:	fef42423          	sw	a5,-24(s0)
    1f14:	06c0006f          	j	1f80 <.L179>

0000000000001f18 <.L180>:
    1f18:	00000517          	auipc	a0,0x0
    1f1c:	00050513          	mv	a0,a0
    1f20:	00000097          	auipc	ra,0x0
    1f24:	000080e7          	jalr	ra # 1f20 <.L180+0x8>
    1f28:	fec42783          	lw	a5,-20(s0)
    1f2c:	00078513          	mv	a0,a5
    1f30:	00000097          	auipc	ra,0x0
    1f34:	000080e7          	jalr	ra # 1f30 <.L180+0x18>
    1f38:	00000517          	auipc	a0,0x0
    1f3c:	00050513          	mv	a0,a0
    1f40:	00000097          	auipc	ra,0x0
    1f44:	000080e7          	jalr	ra # 1f40 <.L180+0x28>
    1f48:	fec46783          	lwu	a5,-20(s0)
    1f4c:	0007a783          	lw	a5,0(a5)
    1f50:	fcf42e23          	sw	a5,-36(s0)
    1f54:	fdc42783          	lw	a5,-36(s0)
    1f58:	00078513          	mv	a0,a5
    1f5c:	00000097          	auipc	ra,0x0
    1f60:	000080e7          	jalr	ra # 1f5c <.L180+0x44>
    1f64:	00000517          	auipc	a0,0x0
    1f68:	00050513          	mv	a0,a0
    1f6c:	00000097          	auipc	ra,0x0
    1f70:	000080e7          	jalr	ra # 1f6c <.L180+0x54>
    1f74:	fec42783          	lw	a5,-20(s0)
    1f78:	0047879b          	addiw	a5,a5,4
    1f7c:	fef42623          	sw	a5,-20(s0)

0000000000001f80 <.L179>:
    1f80:	fe842783          	lw	a5,-24(s0)
    1f84:	fff7871b          	addiw	a4,a5,-1
    1f88:	fee42423          	sw	a4,-24(s0)
    1f8c:	f80796e3          	bnez	a5,1f18 <.L180>
    1f90:	0100006f          	j	1fa0 <.L173>

0000000000001f94 <.L181>:
    1f94:	00000013          	nop
    1f98:	0080006f          	j	1fa0 <.L173>

0000000000001f9c <.L182>:
    1f9c:	00000013          	nop

0000000000001fa0 <.L173>:
    1fa0:	02813083          	ld	ra,40(sp)
    1fa4:	02013403          	ld	s0,32(sp)
    1fa8:	03010113          	addi	sp,sp,48
    1fac:	00008067          	ret

0000000000001fb0 <start>:
    1fb0:	ff010113          	addi	sp,sp,-16
    1fb4:	00113423          	sd	ra,8(sp)
    1fb8:	00813023          	sd	s0,0(sp)
    1fbc:	01010413          	addi	s0,sp,16
    1fc0:	00000517          	auipc	a0,0x0
    1fc4:	00050513          	mv	a0,a0
    1fc8:	00000097          	auipc	ra,0x0
    1fcc:	000080e7          	jalr	ra # 1fc8 <start+0x18>
    1fd0:	00000517          	auipc	a0,0x0
    1fd4:	00050513          	mv	a0,a0
    1fd8:	00000097          	auipc	ra,0x0
    1fdc:	000080e7          	jalr	ra # 1fd8 <start+0x28>
    1fe0:	00000517          	auipc	a0,0x0
    1fe4:	00050513          	mv	a0,a0
    1fe8:	00000097          	auipc	ra,0x0
    1fec:	000080e7          	jalr	ra # 1fe8 <start+0x38>
    1ff0:	00000517          	auipc	a0,0x0
    1ff4:	00050513          	mv	a0,a0
    1ff8:	00000097          	auipc	ra,0x0
    1ffc:	000080e7          	jalr	ra # 1ff8 <start+0x48>
    2000:	00000517          	auipc	a0,0x0
    2004:	00050513          	mv	a0,a0
    2008:	00000097          	auipc	ra,0x0
    200c:	000080e7          	jalr	ra # 2008 <start+0x58>
    2010:	00000517          	auipc	a0,0x0
    2014:	00050513          	mv	a0,a0
    2018:	00000097          	auipc	ra,0x0
    201c:	000080e7          	jalr	ra # 2018 <start+0x68>
    2020:	00000517          	auipc	a0,0x0
    2024:	00050513          	mv	a0,a0
    2028:	00000097          	auipc	ra,0x0
    202c:	000080e7          	jalr	ra # 2028 <start+0x78>
    2030:	00000517          	auipc	a0,0x0
    2034:	00050513          	mv	a0,a0
    2038:	00000097          	auipc	ra,0x0
    203c:	000080e7          	jalr	ra # 2038 <start+0x88>
    2040:	00000517          	auipc	a0,0x0
    2044:	00050513          	mv	a0,a0
    2048:	00000097          	auipc	ra,0x0
    204c:	000080e7          	jalr	ra # 2048 <start+0x98>
    2050:	00000517          	auipc	a0,0x0
    2054:	00050513          	mv	a0,a0
    2058:	00000097          	auipc	ra,0x0
    205c:	000080e7          	jalr	ra # 2058 <start+0xa8>
    2060:	00000517          	auipc	a0,0x0
    2064:	00050513          	mv	a0,a0
    2068:	00000097          	auipc	ra,0x0
    206c:	000080e7          	jalr	ra # 2068 <start+0xb8>
    2070:	00000097          	auipc	ra,0x0
    2074:	000080e7          	jalr	ra # 2070 <start+0xc0>

0000000000002078 <.L196>:
    2078:	00000517          	auipc	a0,0x0
    207c:	00050513          	mv	a0,a0
    2080:	00000097          	auipc	ra,0x0
    2084:	000080e7          	jalr	ra # 2080 <.L196+0x8>
    2088:	00000097          	auipc	ra,0x0
    208c:	000080e7          	jalr	ra # 2088 <.L196+0x10>
    2090:	00000797          	auipc	a5,0x0
    2094:	00078793          	mv	a5,a5
    2098:	0007c783          	lbu	a5,0(a5) # 2090 <.L196+0x18>
    209c:	0007879b          	sext.w	a5,a5
    20a0:	00078693          	mv	a3,a5
    20a4:	04900713          	li	a4,73
    20a8:	08e68c63          	beq	a3,a4,2140 <.L184>
    20ac:	00078693          	mv	a3,a5
    20b0:	04900713          	li	a4,73
    20b4:	02d74263          	blt	a4,a3,20d8 <.L185>
    20b8:	00078693          	mv	a3,a5
    20bc:	04400713          	li	a4,68
    20c0:	08e68c63          	beq	a3,a4,2158 <.L186>
    20c4:	00078693          	mv	a3,a5
    20c8:	04500713          	li	a4,69
    20cc:	06e68463          	beq	a3,a4,2134 <.L187>
    20d0:	0a078663          	beqz	a5,217c <.L197>
    20d4:	09c0006f          	j	2170 <.L189>

00000000000020d8 <.L185>:
    20d8:	00078693          	mv	a3,a5
    20dc:	05200713          	li	a4,82
    20e0:	04e68463          	beq	a3,a4,2128 <.L190>
    20e4:	00078693          	mv	a3,a5
    20e8:	05200713          	li	a4,82
    20ec:	00d74a63          	blt	a4,a3,2100 <.L191>
    20f0:	00078713          	mv	a4,a5
    20f4:	04a00793          	li	a5,74
    20f8:	02f70263          	beq	a4,a5,211c <.L192>
    20fc:	0740006f          	j	2170 <.L189>

0000000000002100 <.L191>:
    2100:	00078693          	mv	a3,a5
    2104:	05400713          	li	a4,84
    2108:	04e68e63          	beq	a3,a4,2164 <.L193>
    210c:	00078713          	mv	a4,a5
    2110:	05600793          	li	a5,86
    2114:	02f70c63          	beq	a4,a5,214c <.L194>
    2118:	0580006f          	j	2170 <.L189>

000000000000211c <.L192>:
    211c:	00000097          	auipc	ra,0x0
    2120:	000080e7          	jalr	ra # 211c <.L192>
    2124:	05c0006f          	j	2180 <.L195>

0000000000002128 <.L190>:
    2128:	00000097          	auipc	ra,0x0
    212c:	000080e7          	jalr	ra # 2128 <.L190>
    2130:	0500006f          	j	2180 <.L195>

0000000000002134 <.L187>:
    2134:	00000097          	auipc	ra,0x0
    2138:	000080e7          	jalr	ra # 2134 <.L187>
    213c:	0440006f          	j	2180 <.L195>

0000000000002140 <.L184>:
    2140:	00000097          	auipc	ra,0x0
    2144:	000080e7          	jalr	ra # 2140 <.L184>
    2148:	0380006f          	j	2180 <.L195>

000000000000214c <.L194>:
    214c:	00000097          	auipc	ra,0x0
    2150:	000080e7          	jalr	ra # 214c <.L194>
    2154:	02c0006f          	j	2180 <.L195>

0000000000002158 <.L186>:
    2158:	00000097          	auipc	ra,0x0
    215c:	000080e7          	jalr	ra # 2158 <.L186>
    2160:	0200006f          	j	2180 <.L195>

0000000000002164 <.L193>:
    2164:	00000097          	auipc	ra,0x0
    2168:	000080e7          	jalr	ra # 2164 <.L193>
    216c:	0140006f          	j	2180 <.L195>

0000000000002170 <.L189>:
    2170:	00000097          	auipc	ra,0x0
    2174:	000080e7          	jalr	ra # 2170 <.L189>
    2178:	f01ff06f          	j	2078 <.L196>

000000000000217c <.L197>:
    217c:	00000013          	nop

0000000000002180 <.L195>:
    2180:	ef9ff06f          	j	2078 <.L196>

Disassembly of section .rodata:

0000000000000000 <INST_NAMES>:
   0:	756c                	ld	a1,232(a0)
   2:	0069                	c.nop	26
   4:	0000                	unimp
   6:	6100                	ld	s0,0(a0)
   8:	6975                	lui	s2,0x1d
   a:	6370                	ld	a2,192(a4)
   c:	0000                	unimp
   e:	616a                	ld	sp,152(sp)
  10:	006c                	addi	a1,sp,12
  12:	0000                	unimp
  14:	6a00                	ld	s0,16(a2)
  16:	6c61                	lui	s8,0x18
  18:	0072                	c.slli	zero,0x1c
  1a:	0000                	unimp
  1c:	6562                	ld	a0,24(sp)
  1e:	0071                	c.nop	28
  20:	0000                	unimp
  22:	6200                	ld	s0,0(a2)
  24:	656e                	ld	a0,216(sp)
  26:	0000                	unimp
  28:	0000                	unimp
  2a:	6c62                	ld	s8,24(sp)
  2c:	0074                	addi	a3,sp,12
  2e:	0000                	unimp
  30:	6200                	ld	s0,0(a2)
  32:	00006567          	0x6567
  36:	0000                	unimp
  38:	6c62                	ld	s8,24(sp)
  3a:	7574                	ld	a3,232(a0)
  3c:	0000                	unimp
  3e:	6200                	ld	s0,0(a2)
  40:	00756567          	0x756567
  44:	0000                	unimp
  46:	626c                	ld	a1,192(a2)
  48:	0000                	unimp
  4a:	0000                	unimp
  4c:	6c00                	ld	s0,24(s0)
  4e:	0068                	addi	a0,sp,12
  50:	0000                	unimp
  52:	0000                	unimp
  54:	776c                	ld	a1,232(a4)
  56:	0000                	unimp
  58:	0000                	unimp
  5a:	6c00                	ld	s0,24(s0)
  5c:	7562                	ld	a0,56(sp)
  5e:	0000                	unimp
  60:	0000                	unimp
  62:	686c                	ld	a1,208(s0)
  64:	0075                	c.nop	29
  66:	0000                	unimp
  68:	7300                	ld	s0,32(a4)
  6a:	0062                	c.slli	zero,0x18
  6c:	0000                	unimp
  6e:	0000                	unimp
  70:	00006873          	csrrsi	a6,ustatus,0
  74:	0000                	unimp
  76:	7300                	ld	s0,32(a4)
  78:	00000077          	0x77
  7c:	0000                	unimp
  7e:	6461                	lui	s0,0x18
  80:	6964                	ld	s1,208(a0)
  82:	0000                	unimp
  84:	7300                	ld	s0,32(a4)
  86:	746c                	ld	a1,232(s0)
  88:	0069                	c.nop	26
  8a:	0000                	unimp
  8c:	69746c73          	csrrsi	s8,0x697,8
  90:	0075                	c.nop	29
  92:	7800                	ld	s0,48(s0)
  94:	0069726f          	jal	tp,9709a <.L195+0x94f1a>
  98:	0000                	unimp
  9a:	0069726f          	jal	tp,970a0 <.L195+0x94f20>
  9e:	0000                	unimp
  a0:	6100                	ld	s0,0(a0)
  a2:	646e                	ld	s0,216(sp)
  a4:	0069                	c.nop	26
  a6:	0000                	unimp
  a8:	696c6c73          	csrrsi	s8,0x696,24
  ac:	0000                	unimp
  ae:	7300                	ld	s0,32(a4)
  b0:	6c72                	ld	s8,280(sp)
  b2:	0069                	c.nop	26
  b4:	0000                	unimp
  b6:	69617273          	csrrci	tp,0x696,2
  ba:	0000                	unimp
  bc:	6100                	ld	s0,0(a0)
  be:	6464                	ld	s1,200(s0)
  c0:	0000                	unimp
  c2:	0000                	unimp
  c4:	00627573          	csrrci	a0,0x6,4
  c8:	0000                	unimp
  ca:	7300                	ld	s0,32(a4)
  cc:	6c6c                	ld	a1,216(s0)
  ce:	0000                	unimp
  d0:	0000                	unimp
  d2:	00746c73          	csrrsi	s8,0x7,8
  d6:	0000                	unimp
  d8:	7300                	ld	s0,32(a4)
  da:	746c                	ld	a1,232(s0)
  dc:	0075                	c.nop	29
  de:	0000                	unimp
  e0:	6f78                	ld	a4,216(a4)
  e2:	0072                	c.slli	zero,0x1c
  e4:	0000                	unimp
  e6:	7300                	ld	s0,32(a4)
  e8:	6c72                	ld	s8,280(sp)
  ea:	0000                	unimp
  ec:	0000                	unimp
  ee:	00617273          	csrrci	tp,0x6,2
  f2:	0000                	unimp
  f4:	6f00                	ld	s0,24(a4)
  f6:	0072                	c.slli	zero,0x1c
  f8:	0000                	unimp
  fa:	0000                	unimp
  fc:	6e61                	lui	t3,0x18
  fe:	0064                	addi	s1,sp,12
 100:	0000                	unimp
 102:	6500                	ld	s0,8(a0)
 104:	6c6c6163          	bltu	s8,t1,7c6 <.LC31+0xe>
 108:	0000                	unimp
 10a:	00006473          	csrrsi	s0,ustatus,0
 10e:	0000                	unimp
 110:	6c00                	ld	s0,24(s0)
 112:	0064                	addi	s1,sp,12
 114:	0000                	unimp
	...

0000000000000118 <INST_CONFIG>:
 118:	0004                	0x4
 11a:	0000                	unimp
 11c:	00000037          	lui	zero,0x0
	...
 128:	0004                	0x4
 12a:	0000                	unimp
 12c:	00000017          	auipc	zero,0x0
	...
 138:	0005                	c.nop	1
 13a:	0000                	unimp
 13c:	0000006f          	j	13c <INST_CONFIG+0x24>
	...
 148:	0001                	nop
 14a:	0000                	unimp
 14c:	00000067          	jr	zero # 0 <INST_NAMES>
	...
 158:	00000003          	lb	zero,0(zero) # 0 <INST_NAMES>
 15c:	00000063          	beqz	zero,15c <INST_CONFIG+0x44>
	...
 168:	00000003          	lb	zero,0(zero) # 0 <INST_NAMES>
 16c:	00000063          	beqz	zero,16c <INST_CONFIG+0x54>
 170:	0001                	nop
 172:	0000                	unimp
 174:	0000                	unimp
 176:	0000                	unimp
 178:	00000003          	lb	zero,0(zero) # 0 <INST_NAMES>
 17c:	00000063          	beqz	zero,17c <INST_CONFIG+0x64>
 180:	0004                	0x4
 182:	0000                	unimp
 184:	0000                	unimp
 186:	0000                	unimp
 188:	00000003          	lb	zero,0(zero) # 0 <INST_NAMES>
 18c:	00000063          	beqz	zero,18c <INST_CONFIG+0x74>
 190:	0005                	c.nop	1
 192:	0000                	unimp
 194:	0000                	unimp
 196:	0000                	unimp
 198:	00000003          	lb	zero,0(zero) # 0 <INST_NAMES>
 19c:	00000063          	beqz	zero,19c <INST_CONFIG+0x84>
 1a0:	0006                	c.slli	zero,0x1
 1a2:	0000                	unimp
 1a4:	0000                	unimp
 1a6:	0000                	unimp
 1a8:	00000003          	lb	zero,0(zero) # 0 <INST_NAMES>
 1ac:	00000063          	beqz	zero,1ac <INST_CONFIG+0x94>
 1b0:	00000007          	0x7
 1b4:	0000                	unimp
 1b6:	0000                	unimp
 1b8:	0001                	nop
 1ba:	0000                	unimp
 1bc:	00000003          	lb	zero,0(zero) # 0 <INST_NAMES>
	...
 1c8:	0001                	nop
 1ca:	0000                	unimp
 1cc:	00000003          	lb	zero,0(zero) # 0 <INST_NAMES>
 1d0:	0001                	nop
 1d2:	0000                	unimp
 1d4:	0000                	unimp
 1d6:	0000                	unimp
 1d8:	0001                	nop
 1da:	0000                	unimp
 1dc:	00000003          	lb	zero,0(zero) # 0 <INST_NAMES>
 1e0:	0002                	c.slli64	zero
 1e2:	0000                	unimp
 1e4:	0000                	unimp
 1e6:	0000                	unimp
 1e8:	0001                	nop
 1ea:	0000                	unimp
 1ec:	00000003          	lb	zero,0(zero) # 0 <INST_NAMES>
 1f0:	0004                	0x4
 1f2:	0000                	unimp
 1f4:	0000                	unimp
 1f6:	0000                	unimp
 1f8:	0001                	nop
 1fa:	0000                	unimp
 1fc:	00000003          	lb	zero,0(zero) # 0 <INST_NAMES>
 200:	0005                	c.nop	1
 202:	0000                	unimp
 204:	0000                	unimp
 206:	0000                	unimp
 208:	0002                	c.slli64	zero
 20a:	0000                	unimp
 20c:	00000023          	sb	zero,0(zero) # 0 <INST_NAMES>
	...
 218:	0002                	c.slli64	zero
 21a:	0000                	unimp
 21c:	00000023          	sb	zero,0(zero) # 0 <INST_NAMES>
 220:	0001                	nop
 222:	0000                	unimp
 224:	0000                	unimp
 226:	0000                	unimp
 228:	0002                	c.slli64	zero
 22a:	0000                	unimp
 22c:	00000023          	sb	zero,0(zero) # 0 <INST_NAMES>
 230:	0002                	c.slli64	zero
 232:	0000                	unimp
 234:	0000                	unimp
 236:	0000                	unimp
 238:	0001                	nop
 23a:	0000                	unimp
 23c:	00000013          	nop
	...
 248:	0001                	nop
 24a:	0000                	unimp
 24c:	00000013          	nop
 250:	0002                	c.slli64	zero
 252:	0000                	unimp
 254:	0000                	unimp
 256:	0000                	unimp
 258:	0001                	nop
 25a:	0000                	unimp
 25c:	00000013          	nop
 260:	00000003          	lb	zero,0(zero) # 0 <INST_NAMES>
 264:	0000                	unimp
 266:	0000                	unimp
 268:	0001                	nop
 26a:	0000                	unimp
 26c:	00000013          	nop
 270:	0004                	0x4
 272:	0000                	unimp
 274:	0000                	unimp
 276:	0000                	unimp
 278:	0001                	nop
 27a:	0000                	unimp
 27c:	00000013          	nop
 280:	0006                	c.slli	zero,0x1
 282:	0000                	unimp
 284:	0000                	unimp
 286:	0000                	unimp
 288:	0001                	nop
 28a:	0000                	unimp
 28c:	00000013          	nop
 290:	00000007          	0x7
	...
 29c:	00000013          	nop
 2a0:	0001                	nop
	...
 2aa:	0000                	unimp
 2ac:	00000013          	nop
 2b0:	0005                	c.nop	1
	...
 2ba:	0000                	unimp
 2bc:	00000013          	nop
 2c0:	0005                	c.nop	1
 2c2:	0000                	unimp
 2c4:	0020                	addi	s0,sp,8
 2c6:	0000                	unimp
 2c8:	0000                	unimp
 2ca:	0000                	unimp
 2cc:	00000033          	add	zero,zero,zero
	...
 2dc:	00000033          	add	zero,zero,zero
 2e0:	0000                	unimp
 2e2:	0000                	unimp
 2e4:	0020                	addi	s0,sp,8
 2e6:	0000                	unimp
 2e8:	0000                	unimp
 2ea:	0000                	unimp
 2ec:	00000033          	add	zero,zero,zero
 2f0:	0001                	nop
	...
 2fa:	0000                	unimp
 2fc:	00000033          	add	zero,zero,zero
 300:	0002                	c.slli64	zero
	...
 30a:	0000                	unimp
 30c:	00000033          	add	zero,zero,zero
 310:	00000003          	lb	zero,0(zero) # 0 <INST_NAMES>
	...
 31c:	00000033          	add	zero,zero,zero
 320:	0004                	0x4
	...
 32a:	0000                	unimp
 32c:	00000033          	add	zero,zero,zero
 330:	0005                	c.nop	1
	...
 33a:	0000                	unimp
 33c:	00000033          	add	zero,zero,zero
 340:	0005                	c.nop	1
 342:	0000                	unimp
 344:	0020                	addi	s0,sp,8
 346:	0000                	unimp
 348:	0000                	unimp
 34a:	0000                	unimp
 34c:	00000033          	add	zero,zero,zero
 350:	0006                	c.slli	zero,0x1
	...
 35a:	0000                	unimp
 35c:	00000033          	add	zero,zero,zero
 360:	00000007          	0x7
 364:	0000                	unimp
 366:	0000                	unimp
 368:	0006                	c.slli	zero,0x1
 36a:	0000                	unimp
 36c:	00000073          	ecall
	...
 378:	0002                	c.slli64	zero
 37a:	0000                	unimp
 37c:	00000023          	sb	zero,0(zero) # 0 <INST_NAMES>
 380:	00000003          	lb	zero,0(zero) # 0 <INST_NAMES>
 384:	0000                	unimp
 386:	0000                	unimp
 388:	0001                	nop
 38a:	0000                	unimp
 38c:	00000003          	lb	zero,0(zero) # 0 <INST_NAMES>
 390:	00000003          	lb	zero,0(zero) # 0 <INST_NAMES>
 394:	0000                	unimp
	...

0000000000000398 <.LC0>:
 398:	3130                	fld	fa2,96(a0)
 39a:	3332                	fld	ft6,296(sp)
 39c:	3534                	fld	fa3,104(a0)
 39e:	3736                	fld	fa4,360(sp)
 3a0:	3938                	fld	fa4,112(a0)
 3a2:	6261                	lui	tp,0x18
 3a4:	66656463          	bltu	a0,t1,a0c <.L40+0x64>
	...

00000000000003b0 <.LC1>:
 3b0:	6e49                	lui	t3,0x12
 3b2:	75727473          	csrrci	s0,0x757,4
 3b6:	6f697463          	bgeu	s2,s6,a9e <init+0x36>
 3ba:	736e                	ld	t1,248(sp)
 3bc:	0a3a                	slli	s4,s4,0xe
	...

00000000000003c0 <.LC2>:
 3c0:	204a                	fld	ft0,144(sp)
 3c2:	783c                	ld	a5,112(s0)
 3c4:	203e                	fld	ft0,456(sp)
 3c6:	2020                	fld	fs0,64(s0)
 3c8:	2020                	fld	fs0,64(s0)
 3ca:	2d20                	fld	fs0,88(a0)
 3cc:	4a20                	lw	s0,80(a2)
 3ce:	6d75                	lui	s10,0x1d
 3d0:	2070                	fld	fa2,192(s0)
 3d2:	6f74                	ld	a3,216(a4)
 3d4:	6120                	ld	s0,64(a0)
 3d6:	6464                	ld	s1,200(s0)
 3d8:	6572                	ld	a0,280(sp)
 3da:	78207373          	csrrci	t1,0x782,0
 3de:	0a2e                	slli	s4,s4,0xb
	...

00000000000003e8 <.LC3>:
 3e8:	2052                	fld	ft0,272(sp)
 3ea:	2020                	fld	fs0,64(s0)
 3ec:	2020                	fld	fs0,64(s0)
 3ee:	2020                	fld	fs0,64(s0)
 3f0:	2020                	fld	fs0,64(s0)
 3f2:	2d20                	fld	fs0,88(a0)
 3f4:	4c20                	lw	s0,88(s0)
 3f6:	7369                	lui	t1,0xffffa
 3f8:	2074                	fld	fa3,192(s0)
 3fa:	6176                	ld	sp,344(sp)
 3fc:	756c                	ld	a1,232(a0)
 3fe:	7365                	lui	t1,0xffff9
 400:	6f20                	ld	s0,88(a4)
 402:	2066                	fld	ft0,88(sp)
 404:	6572                	ld	a0,280(sp)
 406:	74736967          	0x74736967
 40a:	7265                	lui	tp,0xffff9
 40c:	66612073          	csrs	0x666,sp
 410:	6574                	ld	a3,200(a0)
 412:	2072                	fld	ft0,280(sp)
 414:	616c                	ld	a1,192(a0)
 416:	72207473          	csrrci	s0,0x722,0
 41a:	6e75                	lui	t3,0x1d
 41c:	0a2e                	slli	s4,s4,0xb
	...

0000000000000420 <.LC4>:
 420:	2045                	0x2045
 422:	783c                	ld	a5,112(s0)
 424:	203e                	fld	ft0,456(sp)
 426:	2020                	fld	fs0,64(s0)
 428:	2020                	fld	fs0,64(s0)
 42a:	2d20                	fld	fs0,88(a0)
 42c:	4520                	lw	s0,72(a0)
 42e:	6964                	ld	s1,208(a0)
 430:	2074                	fld	fa3,192(s0)
 432:	6164                	ld	s1,192(a0)
 434:	6174                	ld	a3,192(a0)
 436:	7320                	ld	s0,96(a4)
 438:	6174                	ld	a3,192(a0)
 43a:	7472                	ld	s0,312(sp)
 43c:	6e69                	lui	t3,0x1a
 43e:	74612067          	0x74612067
 442:	6120                	ld	s0,64(a0)
 444:	6464                	ld	s1,200(s0)
 446:	6572                	ld	a0,280(sp)
 448:	78207373          	csrrci	t1,0x782,0
 44c:	0a2e                	slli	s4,s4,0xb
	...

0000000000000450 <.LC5>:
 450:	2049                	0x2049
 452:	783c                	ld	a5,112(s0)
 454:	203e                	fld	ft0,456(sp)
 456:	2020                	fld	fs0,64(s0)
 458:	2020                	fld	fs0,64(s0)
 45a:	2d20                	fld	fs0,88(a0)
 45c:	4520                	lw	s0,72(a0)
 45e:	6964                	ld	s1,208(a0)
 460:	2074                	fld	fa3,192(s0)
 462:	6e69                	lui	t3,0x1a
 464:	75727473          	csrrci	s0,0x757,4
 468:	6f697463          	bgeu	s2,s6,b50 <.L59+0x20>
 46c:	736e                	ld	t1,248(sp)
 46e:	7320                	ld	s0,96(a4)
 470:	6174                	ld	a3,192(a0)
 472:	7472                	ld	s0,312(sp)
 474:	6e69                	lui	t3,0x1a
 476:	74612067          	0x74612067
 47a:	6120                	ld	s0,64(a0)
 47c:	6464                	ld	s1,200(s0)
 47e:	6572                	ld	a0,280(sp)
 480:	78207373          	csrrci	t1,0x782,0
 484:	0a2e                	slli	s4,s4,0xb
	...

0000000000000488 <.LC6>:
 488:	2056                	fld	ft0,336(sp)
 48a:	783c                	ld	a5,112(s0)
 48c:	203e                	fld	ft0,456(sp)
 48e:	793c                	ld	a5,112(a0)
 490:	203e                	fld	ft0,456(sp)
 492:	2d20                	fld	fs0,88(a0)
 494:	5620                	lw	s0,104(a2)
 496:	6569                	lui	a0,0x1a
 498:	20792077          	0x20792077
 49c:	64726f77          	0x64726f77
 4a0:	68742073          	csrs	0x687,s0
 4a4:	7461                	lui	s0,0xffff8
 4a6:	6620                	ld	s0,72(a2)
 4a8:	6f6c6c6f          	jal	s8,c6b9e <.L195+0xc4a1e>
 4ac:	64612077          	0x64612077
 4b0:	7264                	ld	s1,224(a2)
 4b2:	7365                	lui	t1,0xffff9
 4b4:	2e782073          	csrs	0x2e7,a6
 4b8:	000a                	c.slli	zero,0x2
 4ba:	0000                	unimp
 4bc:	0000                	unimp
	...

00000000000004c0 <.LC7>:
 4c0:	2044                	fld	fs1,128(s0)
 4c2:	783c                	ld	a5,112(s0)
 4c4:	203e                	fld	ft0,456(sp)
 4c6:	793c                	ld	a5,112(a0)
 4c8:	203e                	fld	ft0,456(sp)
 4ca:	2d20                	fld	fs0,88(a0)
 4cc:	4420                	lw	s0,72(s0)
 4ce:	7369                	lui	t1,0xffffa
 4d0:	7361                	lui	t1,0xffff8
 4d2:	626d6573          	csrrsi	a0,0x626,26
 4d6:	656c                	ld	a1,200(a0)
 4d8:	7920                	ld	s0,112(a0)
 4da:	6920                	ld	s0,80(a0)
 4dc:	736e                	ld	t1,248(sp)
 4de:	7274                	ld	a3,224(a2)
 4e0:	6375                	lui	t1,0x1d
 4e2:	6974                	ld	a3,208(a0)
 4e4:	20736e6f          	jal	t3,36eea <.L195+0x34d6a>
 4e8:	6874                	ld	a3,208(s0)
 4ea:	7461                	lui	s0,0xffff8
 4ec:	6620                	ld	s0,72(a2)
 4ee:	6f6c6c6f          	jal	s8,c6be4 <.L195+0xc4a64>
 4f2:	64612077          	0x64612077
 4f6:	7264                	ld	s1,224(a2)
 4f8:	7365                	lui	t1,0xffff9
 4fa:	2e782073          	csrs	0x2e7,a6
 4fe:	000a                	c.slli	zero,0x2

0000000000000500 <.LC8>:
 500:	2054                	fld	fa3,128(s0)
 502:	3e783c5b          	0x3e783c5b
 506:	205d                	0x205d
 508:	2020                	fld	fs0,64(s0)
 50a:	2d20                	fld	fs0,88(a0)
 50c:	5320                	lw	s0,96(a4)
 50e:	7465                	lui	s0,0xffff9
 510:	7420                	ld	s0,104(s0)
 512:	6d69                	lui	s10,0x1a
 514:	2065                	0x2065
 516:	696c                	ld	a1,208(a0)
 518:	696d                	lui	s2,0x1b
 51a:	2074                	fld	fa3,192(s0)
 51c:	6f74                	ld	a3,216(a4)
 51e:	7820                	ld	s0,112(s0)
 520:	2a20                	fld	fs0,80(a2)
 522:	3120                	fld	fs0,96(a0)
 524:	2030                	fld	fa2,64(s0)
 526:	736d                	lui	t1,0xffffb
 528:	202c                	fld	fa1,64(s0)
 52a:	6320726f          	jal	tp,7b5c <.L195+0x59dc>
 52e:	6568                	ld	a0,200(a0)
 530:	74206b63          	bltu	zero,sp,c86 <jump_exe+0x8e>
 534:	6568                	ld	a0,200(a0)
 536:	6320                	ld	s0,64(a4)
 538:	7275                	lui	tp,0xffffd
 53a:	6572                	ld	a0,280(sp)
 53c:	746e                	ld	s0,248(sp)
 53e:	7420                	ld	s0,104(s0)
 540:	6d69                	lui	s10,0x1a
 542:	2065                	0x2065
 544:	696c                	ld	a1,208(a0)
 546:	696d                	lui	s2,0x1b
 548:	2074                	fld	fa3,192(s0)
 54a:	74746573          	csrrsi	a0,0x747,8
 54e:	6e69                	lui	t3,0x1a
 550:	66692067          	0x66692067
 554:	7820                	ld	s0,112(s0)
 556:	6920                	ld	s0,80(a0)
 558:	6f6e2073          	csrs	0x6f6,t3
 55c:	2074                	fld	fa3,192(s0)
 55e:	63657073          	csrci	0x636,10
 562:	6669                	lui	a2,0x1a
 564:	6569                	lui	a0,0x1a
 566:	2e64                	fld	fs1,216(a2)
 568:	000a                	c.slli	zero,0x2
 56a:	0000                	unimp
 56c:	0000                	unimp
	...

0000000000000570 <.LC9>:
 570:	6e41                	lui	t3,0x10
 572:	7520                	ld	s0,104(a0)
 574:	726e                	ld	tp,248(sp)
 576:	6365                	lui	t1,0x19
 578:	696e676f          	jal	a4,e6c0e <.L195+0xe4a8e>
 57c:	657a                	ld	a0,408(sp)
 57e:	2064                	fld	fs1,192(s0)
 580:	6e69                	lui	t3,0x1a
 582:	6574                	ld	a3,200(a0)
 584:	7272                	ld	tp,312(sp)
 586:	7075                	c.lui	zero,0xffffd
 588:	2074                	fld	fa3,192(s0)
 58a:	6572                	ld	a0,280(sp)
 58c:	76696563          	bltu	s2,t1,cf6 <.L72+0x6e>
 590:	6465                	lui	s0,0x19
 592:	0a21                	addi	s4,s4,8
 594:	0000                	unimp
	...

0000000000000598 <.LC10>:
 598:	73756143          	fmadd.d	ft2,fa0,fs7,fa4,unknown
 59c:	3a65                	addiw	s4,s4,-7
 59e:	0020                	addi	s0,sp,8

00000000000005a0 <.LC11>:
 5a0:	000a                	c.slli	zero,0x2
 5a2:	0000                	unimp
 5a4:	0000                	unimp
	...

00000000000005a8 <.LC12>:
 5a8:	5045                	c.li	zero,-15
 5aa:	00203a43          	fmadd.s	fs4,ft0,ft2,ft0,rup
	...

00000000000005b0 <.LC13>:
 5b0:	7845                	lui	a6,0xffff1
 5b2:	74706563          	bltu	zero,t2,cfc <.L73>
 5b6:	6f69                	lui	t5,0x1a
 5b8:	3a6e                	fld	fs4,248(sp)
 5ba:	6920                	ld	s0,80(a0)
 5bc:	736e                	ld	t1,248(sp)
 5be:	7274                	ld	a3,224(a2)
 5c0:	6375                	lui	t1,0x1d
 5c2:	6974                	ld	a3,208(a0)
 5c4:	6d206e6f          	jal	t3,6c96 <.L195+0x4b16>
 5c8:	7369                	lui	t1,0xffffa
 5ca:	6c61                	lui	s8,0x18
 5cc:	6769                	lui	a4,0x1a
 5ce:	656e                	ld	a0,216(sp)
 5d0:	2064                	fld	fs1,192(s0)
 5d2:	2040                	fld	fs0,128(s0)
 5d4:	0000                	unimp
	...

00000000000005d8 <.LC14>:
 5d8:	7845                	lui	a6,0xffff1
 5da:	74706563          	bltu	zero,t2,d24 <reg_exe+0x14>
 5de:	6f69                	lui	t5,0x1a
 5e0:	3a6e                	fld	fs4,248(sp)
 5e2:	6920                	ld	s0,80(a0)
 5e4:	6c6c                	ld	a1,216(s0)
 5e6:	6765                	lui	a4,0x19
 5e8:	6c61                	lui	s8,0x18
 5ea:	6920                	ld	s0,80(a0)
 5ec:	736e                	ld	t1,248(sp)
 5ee:	7274                	ld	a3,224(a2)
 5f0:	6375                	lui	t1,0x1d
 5f2:	6974                	ld	a3,208(a0)
 5f4:	000a6e6f          	jal	t3,a65f4 <.L195+0xa4474>

00000000000005f8 <.LC15>:
 5f8:	7845                	lui	a6,0xffff1
 5fa:	74706563          	bltu	zero,t2,d44 <.L76+0x1c>
 5fe:	6f69                	lui	t5,0x1a
 600:	3a6e                	fld	fs4,248(sp)
 602:	6c20                	ld	s0,88(s0)
 604:	2064616f          	jal	sp,4680a <.L195+0x4468a>
 608:	696d                	lui	s2,0x1b
 60a:	696c6173          	csrrsi	sp,0x696,24
 60e:	64656e67          	0x64656e67
 612:	4020                	lw	s0,64(s0)
 614:	0020                	addi	s0,sp,8
	...

0000000000000618 <.LC16>:
 618:	7845                	lui	a6,0xffff1
 61a:	74706563          	bltu	zero,t2,d64 <.L76+0x3c>
 61e:	6f69                	lui	t5,0x1a
 620:	3a6e                	fld	fs4,248(sp)
 622:	7320                	ld	s0,96(a4)
 624:	6f74                	ld	a3,216(a4)
 626:	6572                	ld	a0,280(sp)
 628:	6d20                	ld	s0,88(a0)
 62a:	7369                	lui	t1,0xffffa
 62c:	6c61                	lui	s8,0x18
 62e:	6769                	lui	a4,0x1a
 630:	656e                	ld	a0,216(sp)
 632:	2064                	fld	fs1,192(s0)
 634:	2040                	fld	fs0,128(s0)
	...

0000000000000638 <.LC17>:
 638:	6e55                	lui	t3,0x15
 63a:	70707573          	csrrci	a0,0x707,0
 63e:	6574726f          	jal	tp,48494 <.L195+0x46314>
 642:	2064                	fld	fs1,192(s0)
 644:	6572                	ld	a0,280(sp)
 646:	7571                	lui	a0,0xffffc
 648:	7365                	lui	t1,0xffff9
 64a:	3a74                	fld	fa3,240(a2)
 64c:	0020                	addi	s0,sp,8
	...

0000000000000650 <.LC18>:
 650:	6e41                	lui	t3,0x10
 652:	7520                	ld	s0,104(a0)
 654:	726e                	ld	tp,248(sp)
 656:	6365                	lui	t1,0x19
 658:	696e676f          	jal	a4,e6cee <.L195+0xe4b6e>
 65c:	657a                	ld	a0,408(sp)
 65e:	2064                	fld	fs1,192(s0)
 660:	7865                	lui	a6,0xffff9
 662:	74706563          	bltu	zero,t2,dac <.L75+0x14>
 666:	6f69                	lui	t5,0x1a
 668:	206e                	fld	ft0,216(sp)
 66a:	6572                	ld	a0,280(sp)
 66c:	76696563          	bltu	s2,t1,dd6 <edit_exe+0x1a>
 670:	6465                	lui	s0,0x19
 672:	0a21                	addi	s4,s4,8
 674:	0000                	unimp
	...

0000000000000678 <.L42>:
	...

00000000000006a8 <.LC19>:
 6a8:	7355                	lui	t1,0xffff5
 6aa:	7265                	lui	tp,0xffff9
 6ac:	7020                	ld	s0,96(s0)
 6ae:	6f72                	ld	t5,280(sp)
 6b0:	73736563          	bltu	t1,s7,dda <edit_exe+0x1e>
 6b4:	6b20                	ld	s0,80(a4)
 6b6:	6c69                	lui	s8,0x1a
 6b8:	656c                	ld	a1,200(a0)
 6ba:	2064                	fld	fs1,192(s0)
 6bc:	7270                	ld	a2,224(a2)
 6be:	6d65                	lui	s10,0x19
 6c0:	7461                	lui	s0,0xffff8
 6c2:	7275                	lui	tp,0xffffd
 6c4:	6c65                	lui	s8,0x19
 6c6:	2079                	0x2079
 6c8:	6f66                	ld	t5,88(sp)
 6ca:	2072                	fld	ft0,280(sp)
 6cc:	7572                	ld	a0,312(sp)
 6ce:	6e6e                	ld	t3,216(sp)
 6d0:	6e69                	lui	t3,0x1a
 6d2:	756f2067          	0x756f2067
 6d6:	2074                	fld	fa3,192(s0)
 6d8:	7420666f          	jal	a2,6e1a <.L195+0x4c9a>
 6dc:	6d69                	lui	s10,0x1a
 6de:	2e65                	addiw	t3,t3,25
 6e0:	000a                	c.slli	zero,0x2
 6e2:	0000                	unimp
 6e4:	0000                	unimp
	...

00000000000006e8 <.LC20>:
 6e8:	6954                	ld	a3,144(a0)
 6ea:	656d                	lui	a0,0x1b
 6ec:	7520                	ld	s0,104(a0)
 6ee:	3a646573          	csrrsi	a0,0x3a6,8
 6f2:	3120                	fld	fs0,96(a0)
 6f4:	2030                	fld	fa2,64(s0)
 6f6:	202a                	fld	ft0,136(sp)
	...

0000000000000700 <.LC21>:
 700:	6d20                	ld	s0,88(a0)
 702:	00000a73          	0xa73
	...

0000000000000708 <.LC22>:
 708:	6954                	ld	a3,144(a0)
 70a:	656d                	lui	a0,0x1b
 70c:	6c20                	ld	s0,88(s0)
 70e:	6d69                	lui	s10,0x1a
 710:	7469                	lui	s0,0xffffa
 712:	203a                	fld	ft0,392(sp)
 714:	3031                	0x3031
 716:	2a20                	fld	fs0,80(a2)
 718:	0020                	addi	s0,sp,8
 71a:	0000                	unimp
 71c:	0000                	unimp
	...

0000000000000720 <.LC23>:
 720:	2878                	fld	fa4,208(s0)
 722:	0000                	unimp
 724:	0000                	unimp
	...

0000000000000728 <.LC24>:
 728:	2029                	0x2029
 72a:	3d20                	fld	fs0,120(a0)
 72c:	2020                	fld	fs0,64(s0)
	...

0000000000000730 <.LC25>:
 730:	0000005b          	0x5b
 734:	0000                	unimp
	...

0000000000000738 <.LC26>:
 738:	205d                	0x205d
	...

000000000000073c <.L115>:
	...

0000000000000758 <.LC27>:
 758:	493c                	lw	a5,80(a0)
 75a:	766e                	ld	a2,248(sp)
 75c:	6c61                	lui	s8,0x18
 75e:	6469                	lui	s0,0x1a
 760:	003e                	c.slli	zero,0xf
 762:	0000                	unimp
 764:	0000                	unimp
	...

0000000000000768 <.LC28>:
 768:	0020                	addi	s0,sp,8
	...

000000000000076c <.L160>:
	...

0000000000000788 <.LC29>:
 788:	636c6557          	0x636c6557
 78c:	20656d6f          	jal	s10,56992 <.L195+0x54812>
 790:	6f74                	ld	a3,216(a4)
 792:	5320                	lw	s0,96(a4)
 794:	7379                	lui	t1,0xffffe
 796:	6574                	ld	a3,200(a0)
 798:	206d                	0x206d
 79a:	43206e6f          	jal	t3,6bcc <.L195+0x4a4c>
 79e:	7461                	lui	s0,0xffff8
 7a0:	0a21                	addi	s4,s4,8
 7a2:	0000                	unimp
 7a4:	0000                	unimp
	...

00000000000007a8 <.LC30>:
 7a8:	6f4d                	lui	t5,0x13
 7aa:	696e                	ld	s2,216(sp)
 7ac:	6f74                	ld	a3,216(a4)
 7ae:	2072                	fld	ft0,280(sp)
 7b0:	3076                	fld	ft0,376(sp)
 7b2:	312e                	fld	ft2,232(sp)
 7b4:	000a                	c.slli	zero,0x2
	...

00000000000007b8 <.LC31>:
 7b8:	7542                	ld	a0,48(sp)
 7ba:	6c69                	lui	s8,0x1a
 7bc:	2064                	fld	fs1,192(s0)
 7be:	63657073          	csrci	0x636,10
 7c2:	000a3a73          	csrrc	s4,ustatus,s4
	...

00000000000007c8 <.LC32>:
 7c8:	2020                	fld	fs0,64(s0)
 7ca:	48544957          	0x48544957
 7ce:	435f 5253 3d20      	0x3d205253435f
 7d4:	0020                	addi	s0,sp,8
	...

00000000000007d8 <.LC33>:
 7d8:	000a6e6f          	jal	t3,a67d8 <.L195+0xa4658>
 7dc:	0000                	unimp
	...

00000000000007e0 <.LC34>:
 7e0:	2020                	fld	fs0,64(s0)
 7e2:	48544957          	0x48544957
 7e6:	495f 544e 5245      	0x5245544e495f
 7ec:	5552                	lw	a0,52(sp)
 7ee:	5450                	lw	a2,44(s0)
 7f0:	3d20                	fld	fs0,120(a0)
 7f2:	0020                	addi	s0,sp,8
 7f4:	0000                	unimp
	...

00000000000007f8 <.LC35>:
 7f8:	2020                	fld	fs0,64(s0)
 7fa:	48544957          	0x48544957
 7fe:	495f 5152 3d20      	0x3d205152495f
 804:	0020                	addi	s0,sp,8
	...

0000000000000808 <.LC36>:
 808:	2020                	fld	fs0,64(s0)
 80a:	48544957          	0x48544957
 80e:	455f 4143 4c4c      	0x4c4c4143455f
 814:	3d20                	fld	fs0,120(a0)
 816:	0020                	addi	s0,sp,8

0000000000000818 <.LC37>:
 818:	3e3e                	fld	ft8,488(sp)
 81a:	203e                	fld	ft0,456(sp)
	...

Disassembly of section .comment:

0000000000000000 <.comment>:
   0:	4700                	lw	s0,8(a4)
   2:	203a4343          	fmadd.s	ft6,fs4,ft3,ft4,rmm
   6:	5328                	lw	a0,96(a4)
   8:	4669                	li	a2,26
   a:	7669                	lui	a2,0xffffa
   c:	2065                	0x2065
   e:	20434347          	fmsub.s	ft6,ft6,ft4,ft4,rmm
  12:	2e38                	fld	fa4,88(a2)
  14:	2e32                	fld	ft8,264(sp)
  16:	2d30                	fld	fa2,88(a0)
  18:	3032                	fld	ft0,296(sp)
  1a:	3931                	addiw	s2,s2,-20
  1c:	302e                	fld	ft0,232(sp)
  1e:	2e35                	addiw	t3,t3,13
  20:	38202933          	0x38202933
  24:	322e                	fld	ft4,232(sp)
  26:	302e                	fld	ft0,232(sp)
	...

Disassembly of section .riscv.attributes:

0000000000000000 <.riscv.attributes>:
   0:	1941                	addi	s2,s2,-16
   2:	0000                	unimp
   4:	7200                	ld	s0,32(a2)
   6:	7369                	lui	t1,0xffffa
   8:	01007663          	bgeu	zero,a6,14 <.riscv.attributes+0x14>
   c:	0000000f          	fence	unknown,unknown
  10:	7205                	lui	tp,0xfffe1
  12:	3676                	fld	fa2,376(sp)
  14:	6934                	ld	a3,80(a0)
  16:	7032                	0x7032
  18:	0030                	addi	a2,sp,8
